
kernelimage:     file format elf64-littleriscv


Disassembly of section .text:

0000000050201000 <_start>:
    50201000:	50300137          	lui	sp,0x50300
    50201004:	f1402573          	csrr	a0,mhartid
    50201008:	556000ef          	jal	ra,5020155e <boot_kernel>

000000005020100c <loop>:
    5020100c:	10500073          	wfi
    50201010:	bff5                	j	5020100c <loop>

0000000050201012 <local_flush_tlb_all>:
    50201012:	1141                	addi	sp,sp,-16
    50201014:	e422                	sd	s0,8(sp)
    50201016:	0800                	addi	s0,sp,16
    50201018:	12000073          	sfence.vma
    5020101c:	0001                	nop
    5020101e:	6422                	ld	s0,8(sp)
    50201020:	0141                	addi	sp,sp,16
    50201022:	8082                	ret

0000000050201024 <set_satp>:
    50201024:	7179                	addi	sp,sp,-48
    50201026:	f422                	sd	s0,40(sp)
    50201028:	1800                	addi	s0,sp,48
    5020102a:	87aa                	mv	a5,a0
    5020102c:	872e                	mv	a4,a1
    5020102e:	fcc43823          	sd	a2,-48(s0)
    50201032:	fcf42e23          	sw	a5,-36(s0)
    50201036:	87ba                	mv	a5,a4
    50201038:	fcf42c23          	sw	a5,-40(s0)
    5020103c:	fdc46783          	lwu	a5,-36(s0)
    50201040:	03c79713          	slli	a4,a5,0x3c
    50201044:	fd846783          	lwu	a5,-40(s0)
    50201048:	17b2                	slli	a5,a5,0x2c
    5020104a:	8fd9                	or	a5,a5,a4
    5020104c:	fd043703          	ld	a4,-48(s0)
    50201050:	8fd9                	or	a5,a5,a4
    50201052:	fef43423          	sd	a5,-24(s0)
    50201056:	fe843783          	ld	a5,-24(s0)
    5020105a:	12000073          	sfence.vma
    5020105e:	18079073          	csrw	satp,a5
    50201062:	0001                	nop
    50201064:	7422                	ld	s0,40(sp)
    50201066:	6145                	addi	sp,sp,48
    50201068:	8082                	ret

000000005020106a <kva2pa>:
    5020106a:	1101                	addi	sp,sp,-32
    5020106c:	ec22                	sd	s0,24(sp)
    5020106e:	1000                	addi	s0,sp,32
    50201070:	fea43423          	sd	a0,-24(s0)
    50201074:	fe843703          	ld	a4,-24(s0)
    50201078:	4785                	li	a5,1
    5020107a:	179a                	slli	a5,a5,0x26
    5020107c:	97ba                	add	a5,a5,a4
    5020107e:	853e                	mv	a0,a5
    50201080:	6462                	ld	s0,24(sp)
    50201082:	6105                	addi	sp,sp,32
    50201084:	8082                	ret

0000000050201086 <get_pa>:
    50201086:	1101                	addi	sp,sp,-32
    50201088:	ec22                	sd	s0,24(sp)
    5020108a:	1000                	addi	s0,sp,32
    5020108c:	fea43423          	sd	a0,-24(s0)
    50201090:	fe843783          	ld	a5,-24(s0)
    50201094:	83a9                	srli	a5,a5,0xa
    50201096:	00c79713          	slli	a4,a5,0xc
    5020109a:	fff007b7          	lui	a5,0xfff00
    5020109e:	83a1                	srli	a5,a5,0x8
    502010a0:	8ff9                	and	a5,a5,a4
    502010a2:	853e                	mv	a0,a5
    502010a4:	6462                	ld	s0,24(sp)
    502010a6:	6105                	addi	sp,sp,32
    502010a8:	8082                	ret

00000000502010aa <set_pfn>:
    502010aa:	7179                	addi	sp,sp,-48
    502010ac:	f422                	sd	s0,40(sp)
    502010ae:	1800                	addi	s0,sp,48
    502010b0:	fca43c23          	sd	a0,-40(s0)
    502010b4:	fcb43823          	sd	a1,-48(s0)
    502010b8:	fd843783          	ld	a5,-40(s0)
    502010bc:	639c                	ld	a5,0(a5)
    502010be:	3ff7f793          	andi	a5,a5,1023
    502010c2:	fef43423          	sd	a5,-24(s0)
    502010c6:	fd043783          	ld	a5,-48(s0)
    502010ca:	00a79713          	slli	a4,a5,0xa
    502010ce:	fe843783          	ld	a5,-24(s0)
    502010d2:	8f5d                	or	a4,a4,a5
    502010d4:	fd843783          	ld	a5,-40(s0)
    502010d8:	e398                	sd	a4,0(a5)
    502010da:	0001                	nop
    502010dc:	7422                	ld	s0,40(sp)
    502010de:	6145                	addi	sp,sp,48
    502010e0:	8082                	ret

00000000502010e2 <set_attribute>:
    502010e2:	1101                	addi	sp,sp,-32
    502010e4:	ec22                	sd	s0,24(sp)
    502010e6:	1000                	addi	s0,sp,32
    502010e8:	fea43423          	sd	a0,-24(s0)
    502010ec:	feb43023          	sd	a1,-32(s0)
    502010f0:	fe843783          	ld	a5,-24(s0)
    502010f4:	6398                	ld	a4,0(a5)
    502010f6:	fe043783          	ld	a5,-32(s0)
    502010fa:	8f5d                	or	a4,a4,a5
    502010fc:	fe843783          	ld	a5,-24(s0)
    50201100:	e398                	sd	a4,0(a5)
    50201102:	0001                	nop
    50201104:	6462                	ld	s0,24(sp)
    50201106:	6105                	addi	sp,sp,32
    50201108:	8082                	ret

000000005020110a <clear_pgdir>:
    5020110a:	1101                	addi	sp,sp,-32
    5020110c:	ec06                	sd	ra,24(sp)
    5020110e:	e822                	sd	s0,16(sp)
    50201110:	1000                	addi	s0,sp,32
    50201112:	fea43423          	sd	a0,-24(s0)
    50201116:	fe843783          	ld	a5,-24(s0)
    5020111a:	6605                	lui	a2,0x1
    5020111c:	4581                	li	a1,0
    5020111e:	853e                	mv	a0,a5
    50201120:	538000ef          	jal	ra,50201658 <kmemset>
    50201124:	0001                	nop
    50201126:	60e2                	ld	ra,24(sp)
    50201128:	6442                	ld	s0,16(sp)
    5020112a:	6105                	addi	sp,sp,32
    5020112c:	8082                	ret

000000005020112e <is_elf_format>:
    5020112e:	7179                	addi	sp,sp,-48
    50201130:	f422                	sd	s0,40(sp)
    50201132:	1800                	addi	s0,sp,48
    50201134:	fca43c23          	sd	a0,-40(s0)
    50201138:	fd843783          	ld	a5,-40(s0)
    5020113c:	fef43423          	sd	a5,-24(s0)
    50201140:	fe843783          	ld	a5,-24(s0)
    50201144:	0007c783          	lbu	a5,0(a5) # fffffffffff00000 <boot_stack_top_base+0xffffffffafc00000>
    50201148:	eb9d                	bnez	a5,5020117e <is_elf_format+0x50>
    5020114a:	fe843783          	ld	a5,-24(s0)
    5020114e:	0017c783          	lbu	a5,1(a5)
    50201152:	873e                	mv	a4,a5
    50201154:	4785                	li	a5,1
    50201156:	02f71463          	bne	a4,a5,5020117e <is_elf_format+0x50>
    5020115a:	fe843783          	ld	a5,-24(s0)
    5020115e:	0027c783          	lbu	a5,2(a5)
    50201162:	873e                	mv	a4,a5
    50201164:	4789                	li	a5,2
    50201166:	00f71c63          	bne	a4,a5,5020117e <is_elf_format+0x50>
    5020116a:	fe843783          	ld	a5,-24(s0)
    5020116e:	0037c783          	lbu	a5,3(a5)
    50201172:	873e                	mv	a4,a5
    50201174:	478d                	li	a5,3
    50201176:	00f71463          	bne	a4,a5,5020117e <is_elf_format+0x50>
    5020117a:	4781                	li	a5,0
    5020117c:	a011                	j	50201180 <is_elf_format+0x52>
    5020117e:	4785                	li	a5,1
    50201180:	853e                	mv	a0,a5
    50201182:	7422                	ld	s0,40(sp)
    50201184:	6145                	addi	sp,sp,48
    50201186:	8082                	ret

0000000050201188 <load_elf>:
    50201188:	7159                	addi	sp,sp,-112
    5020118a:	f486                	sd	ra,104(sp)
    5020118c:	f0a2                	sd	s0,96(sp)
    5020118e:	1880                	addi	s0,sp,112
    50201190:	faa43423          	sd	a0,-88(s0)
    50201194:	87ae                	mv	a5,a1
    50201196:	f8c43c23          	sd	a2,-104(s0)
    5020119a:	f8d43823          	sd	a3,-112(s0)
    5020119e:	faf42223          	sw	a5,-92(s0)
    502011a2:	fa843783          	ld	a5,-88(s0)
    502011a6:	fcf43823          	sd	a5,-48(s0)
    502011aa:	fc043423          	sd	zero,-56(s0)
    502011ae:	fe043423          	sd	zero,-24(s0)
    502011b2:	fe042023          	sw	zero,-32(s0)
    502011b6:	fa442783          	lw	a5,-92(s0)
    502011ba:	0007871b          	sext.w	a4,a5
    502011be:	478d                	li	a5,3
    502011c0:	00e7f863          	bgeu	a5,a4,502011d0 <load_elf+0x48>
    502011c4:	fa843503          	ld	a0,-88(s0)
    502011c8:	f67ff0ef          	jal	ra,5020112e <is_elf_format>
    502011cc:	87aa                	mv	a5,a0
    502011ce:	e399                	bnez	a5,502011d4 <load_elf+0x4c>
    502011d0:	4781                	li	a5,0
    502011d2:	a259                	j	50201358 <load_elf+0x1d0>
    502011d4:	fd043783          	ld	a5,-48(s0)
    502011d8:	739c                	ld	a5,32(a5)
    502011da:	fa843703          	ld	a4,-88(s0)
    502011de:	97ba                	add	a5,a5,a4
    502011e0:	fef43423          	sd	a5,-24(s0)
    502011e4:	fd043783          	ld	a5,-48(s0)
    502011e8:	0387d783          	lhu	a5,56(a5)
    502011ec:	fef41323          	sh	a5,-26(s0)
    502011f0:	fd043783          	ld	a5,-48(s0)
    502011f4:	0367d783          	lhu	a5,54(a5)
    502011f8:	fcf41323          	sh	a5,-58(s0)
    502011fc:	a299                	j	50201342 <load_elf+0x1ba>
    502011fe:	fe843783          	ld	a5,-24(s0)
    50201202:	fcf43423          	sd	a5,-56(s0)
    50201206:	fc843783          	ld	a5,-56(s0)
    5020120a:	439c                	lw	a5,0(a5)
    5020120c:	873e                	mv	a4,a5
    5020120e:	4785                	li	a5,1
    50201210:	12f71263          	bne	a4,a5,50201334 <load_elf+0x1ac>
    50201214:	fe042023          	sw	zero,-32(s0)
    50201218:	a239                	j	50201326 <load_elf+0x19e>
    5020121a:	fe042703          	lw	a4,-32(s0)
    5020121e:	fc843783          	ld	a5,-56(s0)
    50201222:	739c                	ld	a5,32(a5)
    50201224:	0af77463          	bgeu	a4,a5,502012cc <load_elf+0x144>
    50201228:	fc843783          	ld	a5,-56(s0)
    5020122c:	6b98                	ld	a4,16(a5)
    5020122e:	fe042783          	lw	a5,-32(s0)
    50201232:	97ba                	add	a5,a5,a4
    50201234:	f9043703          	ld	a4,-112(s0)
    50201238:	f9843583          	ld	a1,-104(s0)
    5020123c:	853e                	mv	a0,a5
    5020123e:	9702                	jalr	a4
    50201240:	87aa                	mv	a5,a0
    50201242:	faf43823          	sd	a5,-80(s0)
    50201246:	fc843783          	ld	a5,-56(s0)
    5020124a:	6798                	ld	a4,8(a5)
    5020124c:	fe042783          	lw	a5,-32(s0)
    50201250:	97ba                	add	a5,a5,a4
    50201252:	fa843703          	ld	a4,-88(s0)
    50201256:	00f706b3          	add	a3,a4,a5
    5020125a:	fc843783          	ld	a5,-56(s0)
    5020125e:	7398                	ld	a4,32(a5)
    50201260:	fe042783          	lw	a5,-32(s0)
    50201264:	40f707b3          	sub	a5,a4,a5
    50201268:	6705                	lui	a4,0x1
    5020126a:	00f77363          	bgeu	a4,a5,50201270 <load_elf+0xe8>
    5020126e:	6785                	lui	a5,0x1
    50201270:	2781                	sext.w	a5,a5
    50201272:	863e                	mv	a2,a5
    50201274:	85b6                	mv	a1,a3
    50201276:	fb043503          	ld	a0,-80(s0)
    5020127a:	5ac000ef          	jal	ra,50201826 <memcpy>
    5020127e:	fc843783          	ld	a5,-56(s0)
    50201282:	7398                	ld	a4,32(a5)
    50201284:	fe042783          	lw	a5,-32(s0)
    50201288:	8f1d                	sub	a4,a4,a5
    5020128a:	6785                	lui	a5,0x1
    5020128c:	08f77663          	bgeu	a4,a5,50201318 <load_elf+0x190>
    50201290:	fc843783          	ld	a5,-56(s0)
    50201294:	739c                	ld	a5,32(a5)
    50201296:	0007871b          	sext.w	a4,a5
    5020129a:	6785                	lui	a5,0x1
    5020129c:	17fd                	addi	a5,a5,-1
    5020129e:	8ff9                	and	a5,a5,a4
    502012a0:	fcf42e23          	sw	a5,-36(s0)
    502012a4:	a829                	j	502012be <load_elf+0x136>
    502012a6:	fdc42783          	lw	a5,-36(s0)
    502012aa:	fb043703          	ld	a4,-80(s0)
    502012ae:	97ba                	add	a5,a5,a4
    502012b0:	00078023          	sb	zero,0(a5) # 1000 <_start-0x50200000>
    502012b4:	fdc42783          	lw	a5,-36(s0)
    502012b8:	2785                	addiw	a5,a5,1
    502012ba:	fcf42e23          	sw	a5,-36(s0)
    502012be:	fdc42783          	lw	a5,-36(s0)
    502012c2:	873e                	mv	a4,a5
    502012c4:	6785                	lui	a5,0x1
    502012c6:	fef760e3          	bltu	a4,a5,502012a6 <load_elf+0x11e>
    502012ca:	a0b9                	j	50201318 <load_elf+0x190>
    502012cc:	fc843783          	ld	a5,-56(s0)
    502012d0:	6b98                	ld	a4,16(a5)
    502012d2:	fe042783          	lw	a5,-32(s0)
    502012d6:	97ba                	add	a5,a5,a4
    502012d8:	f9043703          	ld	a4,-112(s0)
    502012dc:	f9843583          	ld	a1,-104(s0)
    502012e0:	853e                	mv	a0,a5
    502012e2:	9702                	jalr	a4
    502012e4:	87aa                	mv	a5,a0
    502012e6:	faf43c23          	sd	a5,-72(s0)
    502012ea:	fc042c23          	sw	zero,-40(s0)
    502012ee:	a831                	j	5020130a <load_elf+0x182>
    502012f0:	fd842783          	lw	a5,-40(s0)
    502012f4:	078e                	slli	a5,a5,0x3
    502012f6:	fb843703          	ld	a4,-72(s0)
    502012fa:	97ba                	add	a5,a5,a4
    502012fc:	0007b023          	sd	zero,0(a5) # 1000 <_start-0x50200000>
    50201300:	fd842783          	lw	a5,-40(s0)
    50201304:	2785                	addiw	a5,a5,1
    50201306:	fcf42c23          	sw	a5,-40(s0)
    5020130a:	fd842783          	lw	a5,-40(s0)
    5020130e:	873e                	mv	a4,a5
    50201310:	1ff00793          	li	a5,511
    50201314:	fce7fee3          	bgeu	a5,a4,502012f0 <load_elf+0x168>
    50201318:	fe042703          	lw	a4,-32(s0)
    5020131c:	6785                	lui	a5,0x1
    5020131e:	9fb9                	addw	a5,a5,a4
    50201320:	2781                	sext.w	a5,a5
    50201322:	fef42023          	sw	a5,-32(s0)
    50201326:	fe042703          	lw	a4,-32(s0)
    5020132a:	fc843783          	ld	a5,-56(s0)
    5020132e:	779c                	ld	a5,40(a5)
    50201330:	eef765e3          	bltu	a4,a5,5020121a <load_elf+0x92>
    50201334:	fc645783          	lhu	a5,-58(s0)
    50201338:	fe843703          	ld	a4,-24(s0)
    5020133c:	97ba                	add	a5,a5,a4
    5020133e:	fef43423          	sd	a5,-24(s0)
    50201342:	fe645783          	lhu	a5,-26(s0)
    50201346:	fff7871b          	addiw	a4,a5,-1
    5020134a:	fee41323          	sh	a4,-26(s0)
    5020134e:	ea0798e3          	bnez	a5,502011fe <load_elf+0x76>
    50201352:	fd043783          	ld	a5,-48(s0)
    50201356:	6f9c                	ld	a5,24(a5)
    50201358:	853e                	mv	a0,a5
    5020135a:	70a6                	ld	ra,104(sp)
    5020135c:	7406                	ld	s0,96(sp)
    5020135e:	6165                	addi	sp,sp,112
    50201360:	8082                	ret

0000000050201362 <alloc_page>:
    50201362:	1141                	addi	sp,sp,-16
    50201364:	e422                	sd	s0,8(sp)
    50201366:	0800                	addi	s0,sp,16
    50201368:	00083797          	auipc	a5,0x83
    5020136c:	19078793          	addi	a5,a5,400 # 502844f8 <__SDATA_BEGIN__>
    50201370:	6398                	ld	a4,0(a5)
    50201372:	6785                	lui	a5,0x1
    50201374:	973e                	add	a4,a4,a5
    50201376:	00083797          	auipc	a5,0x83
    5020137a:	18278793          	addi	a5,a5,386 # 502844f8 <__SDATA_BEGIN__>
    5020137e:	e398                	sd	a4,0(a5)
    50201380:	00083797          	auipc	a5,0x83
    50201384:	17878793          	addi	a5,a5,376 # 502844f8 <__SDATA_BEGIN__>
    50201388:	639c                	ld	a5,0(a5)
    5020138a:	853e                	mv	a0,a5
    5020138c:	6422                	ld	s0,8(sp)
    5020138e:	0141                	addi	sp,sp,16
    50201390:	8082                	ret

0000000050201392 <map_page>:
    50201392:	711d                	addi	sp,sp,-96
    50201394:	ec86                	sd	ra,88(sp)
    50201396:	e8a2                	sd	s0,80(sp)
    50201398:	e4a6                	sd	s1,72(sp)
    5020139a:	1080                	addi	s0,sp,96
    5020139c:	faa43c23          	sd	a0,-72(s0)
    502013a0:	fab43823          	sd	a1,-80(s0)
    502013a4:	fac43423          	sd	a2,-88(s0)
    502013a8:	fb843703          	ld	a4,-72(s0)
    502013ac:	57fd                	li	a5,-1
    502013ae:	83e5                	srli	a5,a5,0x19
    502013b0:	8ff9                	and	a5,a5,a4
    502013b2:	faf43c23          	sd	a5,-72(s0)
    502013b6:	fb843783          	ld	a5,-72(s0)
    502013ba:	83f9                	srli	a5,a5,0x1e
    502013bc:	fcf43c23          	sd	a5,-40(s0)
    502013c0:	fd843783          	ld	a5,-40(s0)
    502013c4:	00979713          	slli	a4,a5,0x9
    502013c8:	fb843783          	ld	a5,-72(s0)
    502013cc:	83d5                	srli	a5,a5,0x15
    502013ce:	8fb9                	xor	a5,a5,a4
    502013d0:	fcf43823          	sd	a5,-48(s0)
    502013d4:	fd843783          	ld	a5,-40(s0)
    502013d8:	078e                	slli	a5,a5,0x3
    502013da:	fa843703          	ld	a4,-88(s0)
    502013de:	97ba                	add	a5,a5,a4
    502013e0:	639c                	ld	a5,0(a5)
    502013e2:	eba1                	bnez	a5,50201432 <map_page+0xa0>
    502013e4:	fd843783          	ld	a5,-40(s0)
    502013e8:	078e                	slli	a5,a5,0x3
    502013ea:	fa843703          	ld	a4,-88(s0)
    502013ee:	00f704b3          	add	s1,a4,a5
    502013f2:	f71ff0ef          	jal	ra,50201362 <alloc_page>
    502013f6:	87aa                	mv	a5,a0
    502013f8:	83b1                	srli	a5,a5,0xc
    502013fa:	85be                	mv	a1,a5
    502013fc:	8526                	mv	a0,s1
    502013fe:	cadff0ef          	jal	ra,502010aa <set_pfn>
    50201402:	fd843783          	ld	a5,-40(s0)
    50201406:	078e                	slli	a5,a5,0x3
    50201408:	fa843703          	ld	a4,-88(s0)
    5020140c:	97ba                	add	a5,a5,a4
    5020140e:	4585                	li	a1,1
    50201410:	853e                	mv	a0,a5
    50201412:	cd1ff0ef          	jal	ra,502010e2 <set_attribute>
    50201416:	fd843783          	ld	a5,-40(s0)
    5020141a:	078e                	slli	a5,a5,0x3
    5020141c:	fa843703          	ld	a4,-88(s0)
    50201420:	97ba                	add	a5,a5,a4
    50201422:	639c                	ld	a5,0(a5)
    50201424:	853e                	mv	a0,a5
    50201426:	c61ff0ef          	jal	ra,50201086 <get_pa>
    5020142a:	87aa                	mv	a5,a0
    5020142c:	853e                	mv	a0,a5
    5020142e:	cddff0ef          	jal	ra,5020110a <clear_pgdir>
    50201432:	fd843783          	ld	a5,-40(s0)
    50201436:	078e                	slli	a5,a5,0x3
    50201438:	fa843703          	ld	a4,-88(s0)
    5020143c:	97ba                	add	a5,a5,a4
    5020143e:	639c                	ld	a5,0(a5)
    50201440:	853e                	mv	a0,a5
    50201442:	c45ff0ef          	jal	ra,50201086 <get_pa>
    50201446:	87aa                	mv	a5,a0
    50201448:	fcf43423          	sd	a5,-56(s0)
    5020144c:	fd043783          	ld	a5,-48(s0)
    50201450:	078e                	slli	a5,a5,0x3
    50201452:	fc843703          	ld	a4,-56(s0)
    50201456:	973e                	add	a4,a4,a5
    50201458:	fb043783          	ld	a5,-80(s0)
    5020145c:	83b1                	srli	a5,a5,0xc
    5020145e:	85be                	mv	a1,a5
    50201460:	853a                	mv	a0,a4
    50201462:	c49ff0ef          	jal	ra,502010aa <set_pfn>
    50201466:	fd043783          	ld	a5,-48(s0)
    5020146a:	078e                	slli	a5,a5,0x3
    5020146c:	fc843703          	ld	a4,-56(s0)
    50201470:	97ba                	add	a5,a5,a4
    50201472:	0cf00593          	li	a1,207
    50201476:	853e                	mv	a0,a5
    50201478:	c6bff0ef          	jal	ra,502010e2 <set_attribute>
    5020147c:	0001                	nop
    5020147e:	60e6                	ld	ra,88(sp)
    50201480:	6446                	ld	s0,80(sp)
    50201482:	64a6                	ld	s1,72(sp)
    50201484:	6125                	addi	sp,sp,96
    50201486:	8082                	ret

0000000050201488 <enable_vm>:
    50201488:	1141                	addi	sp,sp,-16
    5020148a:	e406                	sd	ra,8(sp)
    5020148c:	e022                	sd	s0,0(sp)
    5020148e:	0800                	addi	s0,sp,16
    50201490:	0005e637          	lui	a2,0x5e
    50201494:	4581                	li	a1,0
    50201496:	4521                	li	a0,8
    50201498:	b8dff0ef          	jal	ra,50201024 <set_satp>
    5020149c:	b77ff0ef          	jal	ra,50201012 <local_flush_tlb_all>
    502014a0:	0001                	nop
    502014a2:	60a2                	ld	ra,8(sp)
    502014a4:	6402                	ld	s0,0(sp)
    502014a6:	0141                	addi	sp,sp,16
    502014a8:	8082                	ret

00000000502014aa <setup_vm>:
    502014aa:	7179                	addi	sp,sp,-48
    502014ac:	f406                	sd	ra,40(sp)
    502014ae:	f022                	sd	s0,32(sp)
    502014b0:	1800                	addi	s0,sp,48
    502014b2:	5e000537          	lui	a0,0x5e000
    502014b6:	c55ff0ef          	jal	ra,5020110a <clear_pgdir>
    502014ba:	5e0007b7          	lui	a5,0x5e000
    502014be:	fcf43c23          	sd	a5,-40(s0)
    502014c2:	e02817b7          	lui	a5,0xe0281
    502014c6:	07a6                	slli	a5,a5,0x9
    502014c8:	fef43423          	sd	a5,-24(s0)
    502014cc:	a025                	j	502014f4 <setup_vm+0x4a>
    502014ce:	fe843503          	ld	a0,-24(s0)
    502014d2:	b99ff0ef          	jal	ra,5020106a <kva2pa>
    502014d6:	87aa                	mv	a5,a0
    502014d8:	fd843603          	ld	a2,-40(s0)
    502014dc:	85be                	mv	a1,a5
    502014de:	fe843503          	ld	a0,-24(s0)
    502014e2:	eb1ff0ef          	jal	ra,50201392 <map_page>
    502014e6:	fe843703          	ld	a4,-24(s0)
    502014ea:	002007b7          	lui	a5,0x200
    502014ee:	97ba                	add	a5,a5,a4
    502014f0:	fef43423          	sd	a5,-24(s0)
    502014f4:	fe843703          	ld	a4,-24(s0)
    502014f8:	e0300793          	li	a5,-509
    502014fc:	07f6                	slli	a5,a5,0x1d
    502014fe:	fcf768e3          	bltu	a4,a5,502014ce <setup_vm+0x24>
    50201502:	500007b7          	lui	a5,0x50000
    50201506:	fef43023          	sd	a5,-32(s0)
    5020150a:	a005                	j	5020152a <setup_vm+0x80>
    5020150c:	fd843603          	ld	a2,-40(s0)
    50201510:	fe043583          	ld	a1,-32(s0)
    50201514:	fe043503          	ld	a0,-32(s0)
    50201518:	e7bff0ef          	jal	ra,50201392 <map_page>
    5020151c:	fe043703          	ld	a4,-32(s0)
    50201520:	002007b7          	lui	a5,0x200
    50201524:	97ba                	add	a5,a5,a4
    50201526:	fef43023          	sd	a5,-32(s0)
    5020152a:	fe043703          	ld	a4,-32(s0)
    5020152e:	504007b7          	lui	a5,0x50400
    50201532:	fcf76de3          	bltu	a4,a5,5020150c <setup_vm+0x62>
    50201536:	f53ff0ef          	jal	ra,50201488 <enable_vm>
    5020153a:	0001                	nop
    5020153c:	70a2                	ld	ra,40(sp)
    5020153e:	7402                	ld	s0,32(sp)
    50201540:	6145                	addi	sp,sp,48
    50201542:	8082                	ret

0000000050201544 <directmap>:
    50201544:	1101                	addi	sp,sp,-32
    50201546:	ec22                	sd	s0,24(sp)
    50201548:	1000                	addi	s0,sp,32
    5020154a:	fea43423          	sd	a0,-24(s0)
    5020154e:	feb43023          	sd	a1,-32(s0)
    50201552:	fe843783          	ld	a5,-24(s0)
    50201556:	853e                	mv	a0,a5
    50201558:	6462                	ld	s0,24(sp)
    5020155a:	6105                	addi	sp,sp,32
    5020155c:	8082                	ret

000000005020155e <boot_kernel>:
    5020155e:	1101                	addi	sp,sp,-32
    50201560:	ec06                	sd	ra,24(sp)
    50201562:	e822                	sd	s0,16(sp)
    50201564:	1000                	addi	s0,sp,32
    50201566:	fea43423          	sd	a0,-24(s0)
    5020156a:	feb43023          	sd	a1,-32(s0)
    5020156e:	fe843783          	ld	a5,-24(s0)
    50201572:	ef8d                	bnez	a5,502015ac <boot_kernel+0x4e>
    50201574:	f37ff0ef          	jal	ra,502014aa <setup_vm>
    50201578:	00083797          	auipc	a5,0x83
    5020157c:	f8878793          	addi	a5,a5,-120 # 50284500 <_length_main>
    50201580:	439c                	lw	a5,0(a5)
    50201582:	00000697          	auipc	a3,0x0
    50201586:	fc268693          	addi	a3,a3,-62 # 50201544 <directmap>
    5020158a:	5e000637          	lui	a2,0x5e000
    5020158e:	85be                	mv	a1,a5
    50201590:	00000517          	auipc	a0,0x0
    50201594:	37850513          	addi	a0,a0,888 # 50201908 <_elf_main>
    50201598:	bf1ff0ef          	jal	ra,50201188 <load_elf>
    5020159c:	87aa                	mv	a5,a0
    5020159e:	873e                	mv	a4,a5
    502015a0:	00083797          	auipc	a5,0x83
    502015a4:	f6878793          	addi	a5,a5,-152 # 50284508 <start_kernel>
    502015a8:	e398                	sd	a4,0(a5)
    502015aa:	a019                	j	502015b0 <boot_kernel+0x52>
    502015ac:	eddff0ef          	jal	ra,50201488 <enable_vm>
    502015b0:	00083797          	auipc	a5,0x83
    502015b4:	f5878793          	addi	a5,a5,-168 # 50284508 <start_kernel>
    502015b8:	639c                	ld	a5,0(a5)
    502015ba:	fe043583          	ld	a1,-32(s0)
    502015be:	fe843503          	ld	a0,-24(s0)
    502015c2:	9782                	jalr	a5
    502015c4:	4781                	li	a5,0
    502015c6:	853e                	mv	a0,a5
    502015c8:	60e2                	ld	ra,24(sp)
    502015ca:	6442                	ld	s0,16(sp)
    502015cc:	6105                	addi	sp,sp,32
    502015ce:	8082                	ret

00000000502015d0 <kstrlen>:
    502015d0:	7179                	addi	sp,sp,-48
    502015d2:	f422                	sd	s0,40(sp)
    502015d4:	1800                	addi	s0,sp,48
    502015d6:	fca43c23          	sd	a0,-40(s0)
    502015da:	fe042623          	sw	zero,-20(s0)
    502015de:	a031                	j	502015ea <kstrlen+0x1a>
    502015e0:	fec42783          	lw	a5,-20(s0)
    502015e4:	2785                	addiw	a5,a5,1
    502015e6:	fef42623          	sw	a5,-20(s0)
    502015ea:	fec42783          	lw	a5,-20(s0)
    502015ee:	fd843703          	ld	a4,-40(s0)
    502015f2:	97ba                	add	a5,a5,a4
    502015f4:	0007c783          	lbu	a5,0(a5)
    502015f8:	f7e5                	bnez	a5,502015e0 <kstrlen+0x10>
    502015fa:	fec42783          	lw	a5,-20(s0)
    502015fe:	853e                	mv	a0,a5
    50201600:	7422                	ld	s0,40(sp)
    50201602:	6145                	addi	sp,sp,48
    50201604:	8082                	ret

0000000050201606 <kmemcpy>:
    50201606:	7179                	addi	sp,sp,-48
    50201608:	f422                	sd	s0,40(sp)
    5020160a:	1800                	addi	s0,sp,48
    5020160c:	fea43423          	sd	a0,-24(s0)
    50201610:	feb43023          	sd	a1,-32(s0)
    50201614:	87b2                	mv	a5,a2
    50201616:	fcf42e23          	sw	a5,-36(s0)
    5020161a:	a035                	j	50201646 <kmemcpy+0x40>
    5020161c:	fe043703          	ld	a4,-32(s0)
    50201620:	00170793          	addi	a5,a4,1 # 1001 <_start-0x501fffff>
    50201624:	fef43023          	sd	a5,-32(s0)
    50201628:	fe843783          	ld	a5,-24(s0)
    5020162c:	00178693          	addi	a3,a5,1
    50201630:	fed43423          	sd	a3,-24(s0)
    50201634:	00074703          	lbu	a4,0(a4)
    50201638:	00e78023          	sb	a4,0(a5)
    5020163c:	fdc42783          	lw	a5,-36(s0)
    50201640:	37fd                	addiw	a5,a5,-1
    50201642:	fcf42e23          	sw	a5,-36(s0)
    50201646:	fdc42783          	lw	a5,-36(s0)
    5020164a:	2781                	sext.w	a5,a5
    5020164c:	fbe1                	bnez	a5,5020161c <kmemcpy+0x16>
    5020164e:	0001                	nop
    50201650:	0001                	nop
    50201652:	7422                	ld	s0,40(sp)
    50201654:	6145                	addi	sp,sp,48
    50201656:	8082                	ret

0000000050201658 <kmemset>:
    50201658:	7179                	addi	sp,sp,-48
    5020165a:	f422                	sd	s0,40(sp)
    5020165c:	1800                	addi	s0,sp,48
    5020165e:	fca43c23          	sd	a0,-40(s0)
    50201662:	87ae                	mv	a5,a1
    50201664:	8732                	mv	a4,a2
    50201666:	fcf40ba3          	sb	a5,-41(s0)
    5020166a:	87ba                	mv	a5,a4
    5020166c:	fcf42823          	sw	a5,-48(s0)
    50201670:	fd843783          	ld	a5,-40(s0)
    50201674:	fef43423          	sd	a5,-24(s0)
    50201678:	a005                	j	50201698 <kmemset+0x40>
    5020167a:	fe843783          	ld	a5,-24(s0)
    5020167e:	00178713          	addi	a4,a5,1
    50201682:	fee43423          	sd	a4,-24(s0)
    50201686:	fd744703          	lbu	a4,-41(s0)
    5020168a:	00e78023          	sb	a4,0(a5)
    5020168e:	fd042783          	lw	a5,-48(s0)
    50201692:	37fd                	addiw	a5,a5,-1
    50201694:	fcf42823          	sw	a5,-48(s0)
    50201698:	fd042783          	lw	a5,-48(s0)
    5020169c:	2781                	sext.w	a5,a5
    5020169e:	fff1                	bnez	a5,5020167a <kmemset+0x22>
    502016a0:	0001                	nop
    502016a2:	0001                	nop
    502016a4:	7422                	ld	s0,40(sp)
    502016a6:	6145                	addi	sp,sp,48
    502016a8:	8082                	ret

00000000502016aa <kbzero>:
    502016aa:	1101                	addi	sp,sp,-32
    502016ac:	ec06                	sd	ra,24(sp)
    502016ae:	e822                	sd	s0,16(sp)
    502016b0:	1000                	addi	s0,sp,32
    502016b2:	fea43423          	sd	a0,-24(s0)
    502016b6:	87ae                	mv	a5,a1
    502016b8:	fef42223          	sw	a5,-28(s0)
    502016bc:	fe442783          	lw	a5,-28(s0)
    502016c0:	863e                	mv	a2,a5
    502016c2:	4581                	li	a1,0
    502016c4:	fe843503          	ld	a0,-24(s0)
    502016c8:	f91ff0ef          	jal	ra,50201658 <kmemset>
    502016cc:	0001                	nop
    502016ce:	60e2                	ld	ra,24(sp)
    502016d0:	6442                	ld	s0,16(sp)
    502016d2:	6105                	addi	sp,sp,32
    502016d4:	8082                	ret

00000000502016d6 <kstrcmp>:
    502016d6:	1101                	addi	sp,sp,-32
    502016d8:	ec22                	sd	s0,24(sp)
    502016da:	1000                	addi	s0,sp,32
    502016dc:	fea43423          	sd	a0,-24(s0)
    502016e0:	feb43023          	sd	a1,-32(s0)
    502016e4:	a0a1                	j	5020172c <kstrcmp+0x56>
    502016e6:	fe843783          	ld	a5,-24(s0)
    502016ea:	0007c703          	lbu	a4,0(a5)
    502016ee:	fe043783          	ld	a5,-32(s0)
    502016f2:	0007c783          	lbu	a5,0(a5)
    502016f6:	02f70163          	beq	a4,a5,50201718 <kstrcmp+0x42>
    502016fa:	fe843783          	ld	a5,-24(s0)
    502016fe:	0007c783          	lbu	a5,0(a5)
    50201702:	0007871b          	sext.w	a4,a5
    50201706:	fe043783          	ld	a5,-32(s0)
    5020170a:	0007c783          	lbu	a5,0(a5)
    5020170e:	2781                	sext.w	a5,a5
    50201710:	40f707bb          	subw	a5,a4,a5
    50201714:	2781                	sext.w	a5,a5
    50201716:	a099                	j	5020175c <kstrcmp+0x86>
    50201718:	fe843783          	ld	a5,-24(s0)
    5020171c:	0785                	addi	a5,a5,1
    5020171e:	fef43423          	sd	a5,-24(s0)
    50201722:	fe043783          	ld	a5,-32(s0)
    50201726:	0785                	addi	a5,a5,1
    50201728:	fef43023          	sd	a5,-32(s0)
    5020172c:	fe843783          	ld	a5,-24(s0)
    50201730:	0007c783          	lbu	a5,0(a5)
    50201734:	c791                	beqz	a5,50201740 <kstrcmp+0x6a>
    50201736:	fe043783          	ld	a5,-32(s0)
    5020173a:	0007c783          	lbu	a5,0(a5)
    5020173e:	f7c5                	bnez	a5,502016e6 <kstrcmp+0x10>
    50201740:	fe843783          	ld	a5,-24(s0)
    50201744:	0007c783          	lbu	a5,0(a5)
    50201748:	0007871b          	sext.w	a4,a5
    5020174c:	fe043783          	ld	a5,-32(s0)
    50201750:	0007c783          	lbu	a5,0(a5)
    50201754:	2781                	sext.w	a5,a5
    50201756:	40f707bb          	subw	a5,a4,a5
    5020175a:	2781                	sext.w	a5,a5
    5020175c:	853e                	mv	a0,a5
    5020175e:	6462                	ld	s0,24(sp)
    50201760:	6105                	addi	sp,sp,32
    50201762:	8082                	ret

0000000050201764 <kstrcpy>:
    50201764:	7179                	addi	sp,sp,-48
    50201766:	f422                	sd	s0,40(sp)
    50201768:	1800                	addi	s0,sp,48
    5020176a:	fca43c23          	sd	a0,-40(s0)
    5020176e:	fcb43823          	sd	a1,-48(s0)
    50201772:	fd843783          	ld	a5,-40(s0)
    50201776:	fef43423          	sd	a5,-24(s0)
    5020177a:	a00d                	j	5020179c <kstrcpy+0x38>
    5020177c:	fd043703          	ld	a4,-48(s0)
    50201780:	00170793          	addi	a5,a4,1
    50201784:	fcf43823          	sd	a5,-48(s0)
    50201788:	fd843783          	ld	a5,-40(s0)
    5020178c:	00178693          	addi	a3,a5,1
    50201790:	fcd43c23          	sd	a3,-40(s0)
    50201794:	00074703          	lbu	a4,0(a4)
    50201798:	00e78023          	sb	a4,0(a5)
    5020179c:	fd043783          	ld	a5,-48(s0)
    502017a0:	0007c783          	lbu	a5,0(a5)
    502017a4:	ffe1                	bnez	a5,5020177c <kstrcpy+0x18>
    502017a6:	fd843783          	ld	a5,-40(s0)
    502017aa:	00078023          	sb	zero,0(a5)
    502017ae:	fe843783          	ld	a5,-24(s0)
    502017b2:	853e                	mv	a0,a5
    502017b4:	7422                	ld	s0,40(sp)
    502017b6:	6145                	addi	sp,sp,48
    502017b8:	8082                	ret

00000000502017ba <kstrcat>:
    502017ba:	7179                	addi	sp,sp,-48
    502017bc:	f422                	sd	s0,40(sp)
    502017be:	1800                	addi	s0,sp,48
    502017c0:	fca43c23          	sd	a0,-40(s0)
    502017c4:	fcb43823          	sd	a1,-48(s0)
    502017c8:	fd843783          	ld	a5,-40(s0)
    502017cc:	fef43423          	sd	a5,-24(s0)
    502017d0:	a031                	j	502017dc <kstrcat+0x22>
    502017d2:	fd843783          	ld	a5,-40(s0)
    502017d6:	0785                	addi	a5,a5,1
    502017d8:	fcf43c23          	sd	a5,-40(s0)
    502017dc:	fd843783          	ld	a5,-40(s0)
    502017e0:	0007c783          	lbu	a5,0(a5)
    502017e4:	f7fd                	bnez	a5,502017d2 <kstrcat+0x18>
    502017e6:	a00d                	j	50201808 <kstrcat+0x4e>
    502017e8:	fd043703          	ld	a4,-48(s0)
    502017ec:	00170793          	addi	a5,a4,1
    502017f0:	fcf43823          	sd	a5,-48(s0)
    502017f4:	fd843783          	ld	a5,-40(s0)
    502017f8:	00178693          	addi	a3,a5,1
    502017fc:	fcd43c23          	sd	a3,-40(s0)
    50201800:	00074703          	lbu	a4,0(a4)
    50201804:	00e78023          	sb	a4,0(a5)
    50201808:	fd043783          	ld	a5,-48(s0)
    5020180c:	0007c783          	lbu	a5,0(a5)
    50201810:	ffe1                	bnez	a5,502017e8 <kstrcat+0x2e>
    50201812:	fd843783          	ld	a5,-40(s0)
    50201816:	00078023          	sb	zero,0(a5)
    5020181a:	fe843783          	ld	a5,-24(s0)
    5020181e:	853e                	mv	a0,a5
    50201820:	7422                	ld	s0,40(sp)
    50201822:	6145                	addi	sp,sp,48
    50201824:	8082                	ret

0000000050201826 <memcpy>:
    50201826:	7179                	addi	sp,sp,-48
    50201828:	f422                	sd	s0,40(sp)
    5020182a:	1800                	addi	s0,sp,48
    5020182c:	fea43423          	sd	a0,-24(s0)
    50201830:	feb43023          	sd	a1,-32(s0)
    50201834:	87b2                	mv	a5,a2
    50201836:	fcf42e23          	sw	a5,-36(s0)
    5020183a:	a035                	j	50201866 <memcpy+0x40>
    5020183c:	fe043703          	ld	a4,-32(s0)
    50201840:	00170793          	addi	a5,a4,1
    50201844:	fef43023          	sd	a5,-32(s0)
    50201848:	fe843783          	ld	a5,-24(s0)
    5020184c:	00178693          	addi	a3,a5,1
    50201850:	fed43423          	sd	a3,-24(s0)
    50201854:	00074703          	lbu	a4,0(a4)
    50201858:	00e78023          	sb	a4,0(a5)
    5020185c:	fdc42783          	lw	a5,-36(s0)
    50201860:	37fd                	addiw	a5,a5,-1
    50201862:	fcf42e23          	sw	a5,-36(s0)
    50201866:	fdc42783          	lw	a5,-36(s0)
    5020186a:	2781                	sext.w	a5,a5
    5020186c:	fbe1                	bnez	a5,5020183c <memcpy+0x16>
    5020186e:	0001                	nop
    50201870:	0001                	nop
    50201872:	7422                	ld	s0,40(sp)
    50201874:	6145                	addi	sp,sp,48
    50201876:	8082                	ret

0000000050201878 <strcmp>:
    50201878:	1101                	addi	sp,sp,-32
    5020187a:	ec22                	sd	s0,24(sp)
    5020187c:	1000                	addi	s0,sp,32
    5020187e:	fea43423          	sd	a0,-24(s0)
    50201882:	feb43023          	sd	a1,-32(s0)
    50201886:	a0a1                	j	502018ce <strcmp+0x56>
    50201888:	fe843783          	ld	a5,-24(s0)
    5020188c:	0007c703          	lbu	a4,0(a5)
    50201890:	fe043783          	ld	a5,-32(s0)
    50201894:	0007c783          	lbu	a5,0(a5)
    50201898:	02f70163          	beq	a4,a5,502018ba <strcmp+0x42>
    5020189c:	fe843783          	ld	a5,-24(s0)
    502018a0:	0007c783          	lbu	a5,0(a5)
    502018a4:	0007871b          	sext.w	a4,a5
    502018a8:	fe043783          	ld	a5,-32(s0)
    502018ac:	0007c783          	lbu	a5,0(a5)
    502018b0:	2781                	sext.w	a5,a5
    502018b2:	40f707bb          	subw	a5,a4,a5
    502018b6:	2781                	sext.w	a5,a5
    502018b8:	a099                	j	502018fe <strcmp+0x86>
    502018ba:	fe843783          	ld	a5,-24(s0)
    502018be:	0785                	addi	a5,a5,1
    502018c0:	fef43423          	sd	a5,-24(s0)
    502018c4:	fe043783          	ld	a5,-32(s0)
    502018c8:	0785                	addi	a5,a5,1
    502018ca:	fef43023          	sd	a5,-32(s0)
    502018ce:	fe843783          	ld	a5,-24(s0)
    502018d2:	0007c783          	lbu	a5,0(a5)
    502018d6:	c791                	beqz	a5,502018e2 <strcmp+0x6a>
    502018d8:	fe043783          	ld	a5,-32(s0)
    502018dc:	0007c783          	lbu	a5,0(a5)
    502018e0:	f7c5                	bnez	a5,50201888 <strcmp+0x10>
    502018e2:	fe843783          	ld	a5,-24(s0)
    502018e6:	0007c783          	lbu	a5,0(a5)
    502018ea:	0007871b          	sext.w	a4,a5
    502018ee:	fe043783          	ld	a5,-32(s0)
    502018f2:	0007c783          	lbu	a5,0(a5)
    502018f6:	2781                	sext.w	a5,a5
    502018f8:	40f707bb          	subw	a5,a4,a5
    502018fc:	2781                	sext.w	a5,a5
    502018fe:	853e                	mv	a0,a5
    50201900:	6462                	ld	s0,24(sp)
    50201902:	6105                	addi	sp,sp,32
    50201904:	8082                	ret
