
main:     file format elf64-littleriscv


Disassembly of section .text:

0000000050200000 <_start>:
    50200000:	10401073          	csrw	sie,zero
    50200004:	14401073          	csrw	sip,zero
    50200008:	6299                	lui	t0,0x6
    5020000a:	1002b073          	csrc	sstatus,t0
    5020000e:	00005197          	auipc	gp,0x5
    50200012:	4da18193          	addi	gp,gp,1242 # 502054e8 <__global_pointer$>
    50200016:	84418693          	addi	a3,gp,-1980 # 50204d2c <_edata>
    5020001a:	00007717          	auipc	a4,0x7
    5020001e:	51e70713          	addi	a4,a4,1310 # 50207538 <__BSS_END__>
    50200022:	00e6d763          	bge	a3,a4,50200030 <clear_bss_done>

0000000050200026 <clear_bss>:
    50200026:	0006b023          	sd	zero,0(a3)
    5020002a:	06a1                	addi	a3,a3,8
    5020002c:	fee6cde3          	blt	a3,a4,50200026 <clear_bss>

0000000050200030 <clear_bss_done>:
    50200030:	00005217          	auipc	tp,0x5
    50200034:	84020213          	addi	tp,tp,-1984 # 50204870 <pid0_pcb>
    50200038:	00005117          	auipc	sp,0x5
    5020003c:	cb012103          	lw	sp,-848(sp) # 50204ce8 <pid0_stack>
    50200040:	14001073          	csrw	sscratch,zero
    50200044:	00007517          	auipc	a0,0x7
    50200048:	ccc50513          	addi	a0,a0,-820 # 50206d10 <riscv_dtb>
    5020004c:	e10c                	sd	a1,0(a0)
    5020004e:	7cb000ef          	jal	ra,50201018 <main>

0000000050200052 <loop>:
    50200052:	10500073          	wfi
    50200056:	bff5                	j	50200052 <loop>
    50200058:	0000                	unimp
	...

000000005020005c <setup_exception>:
    5020005c:	00000517          	auipc	a0,0x0
    50200060:	16050513          	addi	a0,a0,352 # 502001bc <exception_handler_entry>
    50200064:	10551073          	csrw	stvec,a0
    50200068:	02200513          	li	a0,34
    5020006c:	10052073          	csrs	sstatus,a0
    50200070:	22200513          	li	a0,546
    50200074:	10452073          	csrs	sie,a0
    50200078:	8082                	ret
	...

000000005020007c <enable_preempt>:
    5020007c:	00007317          	auipc	t1,0x7
    50200080:	e1c33303          	ld	t1,-484(t1) # 50206e98 <current_running>
    50200084:	01033283          	ld	t0,16(t1)
    50200088:	00028863          	beqz	t0,50200098 <do_enable>
    5020008c:	12fd                	addi	t0,t0,-1
    5020008e:	00533823          	sd	t0,16(t1)
    50200092:	00028363          	beqz	t0,50200098 <do_enable>
    50200096:	8082                	ret

0000000050200098 <do_enable>:
    50200098:	fff04293          	not	t0,zero
    5020009c:	1042a073          	csrs	sie,t0
    502000a0:	8082                	ret
    502000a2:	0001                	nop

00000000502000a4 <disable_preempt>:
    502000a4:	10401073          	csrw	sie,zero
    502000a8:	00007317          	auipc	t1,0x7
    502000ac:	df033303          	ld	t1,-528(t1) # 50206e98 <current_running>
    502000b0:	01033283          	ld	t0,16(t1)
    502000b4:	0285                	addi	t0,t0,1
    502000b6:	00533823          	sd	t0,16(t1)
    502000ba:	8082                	ret

00000000502000bc <enable_interrupt>:
    502000bc:	4289                	li	t0,2
    502000be:	1002a073          	csrs	sstatus,t0
    502000c2:	8082                	ret

00000000502000c4 <disable_interrupt>:
    502000c4:	4289                	li	t0,2
    502000c6:	1002b073          	csrc	sstatus,t0
    502000ca:	8082                	ret

00000000502000cc <switch_to>:
    502000cc:	00053283          	ld	t0,0(a0)
    502000d0:	f9028293          	addi	t0,t0,-112 # 5f90 <_start-0x501fa070>
    502000d4:	0022b423          	sd	sp,8(t0)
    502000d8:	0082b823          	sd	s0,16(t0)
    502000dc:	0092bc23          	sd	s1,24(t0)
    502000e0:	0322b023          	sd	s2,32(t0)
    502000e4:	0332b423          	sd	s3,40(t0)
    502000e8:	0342b823          	sd	s4,48(t0)
    502000ec:	0352bc23          	sd	s5,56(t0)
    502000f0:	0562b023          	sd	s6,64(t0)
    502000f4:	0572b423          	sd	s7,72(t0)
    502000f8:	0582b823          	sd	s8,80(t0)
    502000fc:	0592bc23          	sd	s9,88(t0)
    50200100:	07a2b023          	sd	s10,96(t0)
    50200104:	07b2b423          	sd	s11,104(t0)
    50200108:	00553023          	sd	t0,0(a0)
    5020010c:	0005b283          	ld	t0,0(a1)
    50200110:	0082b103          	ld	sp,8(t0)
    50200114:	0102b403          	ld	s0,16(t0)
    50200118:	0182b483          	ld	s1,24(t0)
    5020011c:	0202b903          	ld	s2,32(t0)
    50200120:	0282b983          	ld	s3,40(t0)
    50200124:	0302ba03          	ld	s4,48(t0)
    50200128:	0382ba83          	ld	s5,56(t0)
    5020012c:	0402bb03          	ld	s6,64(t0)
    50200130:	0482bb83          	ld	s7,72(t0)
    50200134:	0502bc03          	ld	s8,80(t0)
    50200138:	0582bc83          	ld	s9,88(t0)
    5020013c:	0602bd03          	ld	s10,96(t0)
    50200140:	0682bd83          	ld	s11,104(t0)
    50200144:	07028293          	addi	t0,t0,112
    50200148:	0055b023          	sd	t0,0(a1)
    5020014c:	00058233          	add	tp,a1,zero

0000000050200150 <ret_from_exception>:
    50200150:	14021073          	csrw	sscratch,tp
    50200154:	00023103          	ld	sp,0(tp) # 0 <_start-0x50200000>
    50200158:	6292                	ld	t0,256(sp)
    5020015a:	6332                	ld	t1,264(sp)
    5020015c:	10029073          	csrw	sstatus,t0
    50200160:	14131073          	csrw	sepc,t1
    50200164:	60a2                	ld	ra,8(sp)
    50200166:	61e2                	ld	gp,24(sp)
    50200168:	72a2                	ld	t0,40(sp)
    5020016a:	7342                	ld	t1,48(sp)
    5020016c:	73e2                	ld	t2,56(sp)
    5020016e:	6406                	ld	s0,64(sp)
    50200170:	64a6                	ld	s1,72(sp)
    50200172:	6546                	ld	a0,80(sp)
    50200174:	65e6                	ld	a1,88(sp)
    50200176:	7606                	ld	a2,96(sp)
    50200178:	76a6                	ld	a3,104(sp)
    5020017a:	7746                	ld	a4,112(sp)
    5020017c:	77e6                	ld	a5,120(sp)
    5020017e:	680a                	ld	a6,128(sp)
    50200180:	68aa                	ld	a7,136(sp)
    50200182:	694a                	ld	s2,144(sp)
    50200184:	69ea                	ld	s3,152(sp)
    50200186:	7a0a                	ld	s4,160(sp)
    50200188:	7aaa                	ld	s5,168(sp)
    5020018a:	7b4a                	ld	s6,176(sp)
    5020018c:	7bea                	ld	s7,184(sp)
    5020018e:	6c0e                	ld	s8,192(sp)
    50200190:	6cae                	ld	s9,200(sp)
    50200192:	6d4e                	ld	s10,208(sp)
    50200194:	6dee                	ld	s11,216(sp)
    50200196:	7e0e                	ld	t3,224(sp)
    50200198:	7eae                	ld	t4,232(sp)
    5020019a:	00010f33          	add	t5,sp,zero
    5020019e:	00020fb3          	add	t6,tp,zero
    502001a2:	6115                	addi	sp,sp,288
    502001a4:	002fb023          	sd	sp,0(t6)
    502001a8:	008fb103          	ld	sp,8(t6)
    502001ac:	020f3203          	ld	tp,32(t5)
    502001b0:	0f8f3f83          	ld	t6,248(t5)
    502001b4:	0f0f3f03          	ld	t5,240(t5)
    502001b8:	10200073          	sret

00000000502001bc <exception_handler_entry>:
    502001bc:	14021273          	csrrw	tp,sscratch,tp
    502001c0:	00021663          	bnez	tp,502001cc <_save_context>

00000000502001c4 <_restore_kernel_tpsp>:
    502001c4:	14002273          	csrr	tp,sscratch
    502001c8:	00223023          	sd	sp,0(tp) # 0 <_start-0x50200000>

00000000502001cc <_save_context>:
    502001cc:	00223423          	sd	sp,8(tp) # 8 <_start-0x501ffff8>
    502001d0:	00023103          	ld	sp,0(tp) # 0 <_start-0x50200000>
    502001d4:	712d                	addi	sp,sp,-288
    502001d6:	00223023          	sd	sp,0(tp) # 0 <_start-0x50200000>
    502001da:	e002                	sd	zero,0(sp)
    502001dc:	e406                	sd	ra,8(sp)
    502001de:	e80a                	sd	sp,16(sp)
    502001e0:	ec0e                	sd	gp,24(sp)
    502001e2:	f012                	sd	tp,32(sp)
    502001e4:	f416                	sd	t0,40(sp)
    502001e6:	f81a                	sd	t1,48(sp)
    502001e8:	fc1e                	sd	t2,56(sp)
    502001ea:	e0a2                	sd	s0,64(sp)
    502001ec:	e4a6                	sd	s1,72(sp)
    502001ee:	e8aa                	sd	a0,80(sp)
    502001f0:	ecae                	sd	a1,88(sp)
    502001f2:	f0b2                	sd	a2,96(sp)
    502001f4:	f4b6                	sd	a3,104(sp)
    502001f6:	f8ba                	sd	a4,112(sp)
    502001f8:	fcbe                	sd	a5,120(sp)
    502001fa:	e142                	sd	a6,128(sp)
    502001fc:	e546                	sd	a7,136(sp)
    502001fe:	e94a                	sd	s2,144(sp)
    50200200:	ed4e                	sd	s3,152(sp)
    50200202:	f152                	sd	s4,160(sp)
    50200204:	f556                	sd	s5,168(sp)
    50200206:	f95a                	sd	s6,176(sp)
    50200208:	fd5e                	sd	s7,184(sp)
    5020020a:	e1e2                	sd	s8,192(sp)
    5020020c:	e5e6                	sd	s9,200(sp)
    5020020e:	e9ea                	sd	s10,208(sp)
    50200210:	edee                	sd	s11,216(sp)
    50200212:	f1f2                	sd	t3,224(sp)
    50200214:	f5f6                	sd	t4,232(sp)
    50200216:	f9fa                	sd	t5,240(sp)
    50200218:	fdfe                	sd	t6,248(sp)
    5020021a:	000462b7          	lui	t0,0x46
    5020021e:	1002b073          	csrc	sstatus,t0
    50200222:	100022f3          	csrr	t0,sstatus
    50200226:	14102373          	csrr	t1,sepc
    5020022a:	143023f3          	csrr	t2,stval
    5020022e:	14202e73          	csrr	t3,scause
    50200232:	e216                	sd	t0,256(sp)
    50200234:	e61a                	sd	t1,264(sp)
    50200236:	ea1e                	sd	t2,272(sp)
    50200238:	ee72                	sd	t3,280(sp)
    5020023a:	14001073          	csrw	sscratch,zero
    5020023e:	00005197          	auipc	gp,0x5
    50200242:	2aa18193          	addi	gp,gp,682 # 502054e8 <__global_pointer$>
    50200246:	00023503          	ld	a0,0(tp) # 0 <_start-0x50200000>
    5020024a:	143025f3          	csrr	a1,stval
    5020024e:	14202673          	csrr	a2,scause
    50200252:	713000ef          	jal	ra,50201164 <interrupt_helper>

0000000050200256 <here>:
    50200256:	bded                	j	50200150 <ret_from_exception>

0000000050200258 <hex>:
    50200258:	00000617          	auipc	a2,0x0
    5020025c:	06460613          	addi	a2,a2,100 # 502002bc <printmsg>
    50200260:	03000293          	li	t0,48
    50200264:	00560023          	sb	t0,0(a2)
    50200268:	07800293          	li	t0,120
    5020026c:	005600a3          	sb	t0,1(a2)
    50200270:	00960293          	addi	t0,a2,9
    50200274:	4329                	li	t1,10
    50200276:	00160393          	addi	t2,a2,1

000000005020027a <.loop>:
    5020027a:	02728063          	beq	t0,t2,5020029a <.end>
    5020027e:	00f57593          	andi	a1,a0,15
    50200282:	0065d563          	bge	a1,t1,5020028c <.ge>
    50200286:	03058593          	addi	a1,a1,48
    5020028a:	a019                	j	50200290 <.tail>

000000005020028c <.ge>:
    5020028c:	03758593          	addi	a1,a1,55

0000000050200290 <.tail>:
    50200290:	00b28023          	sb	a1,0(t0) # 46000 <_start-0x501ba000>
    50200294:	12fd                	addi	t0,t0,-1
    50200296:	8111                	srli	a0,a0,0x4
    50200298:	b7cd                	j	5020027a <.loop>

000000005020029a <.end>:
    5020029a:	42a9                	li	t0,10
    5020029c:	00560523          	sb	t0,10(a2)
    502002a0:	42b5                	li	t0,13
    502002a2:	005605a3          	sb	t0,11(a2)
    502002a6:	000002b3          	add	t0,zero,zero
    502002aa:	00560623          	sb	t0,12(a2)
    502002ae:	00060533          	add	a0,a2,zero
    502002b2:	48a5                	li	a7,9
    502002b4:	00000073          	ecall
    502002b8:	0001                	nop
    502002ba:	bf71                	j	50200256 <here>

00000000502002bc <printmsg>:
    502002bc:	3030                	fld	fa2,96(s0)
    502002be:	3030                	fld	fa2,96(s0)
    502002c0:	3030                	fld	fa2,96(s0)
    502002c2:	3030                	fld	fa2,96(s0)
    502002c4:	3030                	fld	fa2,96(s0)
    502002c6:	3030                	fld	fa2,96(s0)
    502002c8:	3030                	fld	fa2,96(s0)
    502002ca:	0030                	addi	a2,sp,8

00000000502002cc <sbi_console_putstr>:
    502002cc:	1101                	addi	sp,sp,-32
    502002ce:	ec22                	sd	s0,24(sp)
    502002d0:	1000                	addi	s0,sp,32
    502002d2:	fea43423          	sd	a0,-24(s0)
    502002d6:	fe843783          	ld	a5,-24(s0)
    502002da:	853e                	mv	a0,a5
    502002dc:	4581                	li	a1,0
    502002de:	4601                	li	a2,0
    502002e0:	48a5                	li	a7,9
    502002e2:	00000073          	ecall
    502002e6:	0001                	nop
    502002e8:	6462                	ld	s0,24(sp)
    502002ea:	6105                	addi	sp,sp,32
    502002ec:	8082                	ret

00000000502002ee <sbi_console_putchar>:
    502002ee:	1101                	addi	sp,sp,-32
    502002f0:	ec22                	sd	s0,24(sp)
    502002f2:	1000                	addi	s0,sp,32
    502002f4:	87aa                	mv	a5,a0
    502002f6:	fef42623          	sw	a5,-20(s0)
    502002fa:	fec42783          	lw	a5,-20(s0)
    502002fe:	853e                	mv	a0,a5
    50200300:	4581                	li	a1,0
    50200302:	4601                	li	a2,0
    50200304:	4885                	li	a7,1
    50200306:	00000073          	ecall
    5020030a:	0001                	nop
    5020030c:	6462                	ld	s0,24(sp)
    5020030e:	6105                	addi	sp,sp,32
    50200310:	8082                	ret

0000000050200312 <sbi_console_getchar>:
    50200312:	1141                	addi	sp,sp,-16
    50200314:	e422                	sd	s0,8(sp)
    50200316:	0800                	addi	s0,sp,16
    50200318:	4501                	li	a0,0
    5020031a:	4581                	li	a1,0
    5020031c:	4601                	li	a2,0
    5020031e:	4889                	li	a7,2
    50200320:	00000073          	ecall
    50200324:	87aa                	mv	a5,a0
    50200326:	2781                	sext.w	a5,a5
    50200328:	853e                	mv	a0,a5
    5020032a:	6422                	ld	s0,8(sp)
    5020032c:	0141                	addi	sp,sp,16
    5020032e:	8082                	ret

0000000050200330 <port_write_ch>:
    50200330:	1101                	addi	sp,sp,-32
    50200332:	ec06                	sd	ra,24(sp)
    50200334:	e822                	sd	s0,16(sp)
    50200336:	1000                	addi	s0,sp,32
    50200338:	87aa                	mv	a5,a0
    5020033a:	fef407a3          	sb	a5,-17(s0)
    5020033e:	fef44783          	lbu	a5,-17(s0)
    50200342:	2781                	sext.w	a5,a5
    50200344:	853e                	mv	a0,a5
    50200346:	fa9ff0ef          	jal	ra,502002ee <sbi_console_putchar>
    5020034a:	0001                	nop
    5020034c:	60e2                	ld	ra,24(sp)
    5020034e:	6442                	ld	s0,16(sp)
    50200350:	6105                	addi	sp,sp,32
    50200352:	8082                	ret

0000000050200354 <port_write>:
    50200354:	1101                	addi	sp,sp,-32
    50200356:	ec06                	sd	ra,24(sp)
    50200358:	e822                	sd	s0,16(sp)
    5020035a:	1000                	addi	s0,sp,32
    5020035c:	fea43423          	sd	a0,-24(s0)
    50200360:	fe843503          	ld	a0,-24(s0)
    50200364:	f69ff0ef          	jal	ra,502002cc <sbi_console_putstr>
    50200368:	0001                	nop
    5020036a:	60e2                	ld	ra,24(sp)
    5020036c:	6442                	ld	s0,16(sp)
    5020036e:	6105                	addi	sp,sp,32
    50200370:	8082                	ret

0000000050200372 <port_read_ch>:
    50200372:	1141                	addi	sp,sp,-16
    50200374:	e406                	sd	ra,8(sp)
    50200376:	e022                	sd	s0,0(sp)
    50200378:	0800                	addi	s0,sp,16
    5020037a:	f99ff0ef          	jal	ra,50200312 <sbi_console_getchar>
    5020037e:	87aa                	mv	a5,a0
    50200380:	853e                	mv	a0,a5
    50200382:	60a2                	ld	ra,8(sp)
    50200384:	6402                	ld	s0,0(sp)
    50200386:	0141                	addi	sp,sp,16
    50200388:	8082                	ret

000000005020038a <sbi_set_timer>:
    5020038a:	1101                	addi	sp,sp,-32
    5020038c:	ec22                	sd	s0,24(sp)
    5020038e:	1000                	addi	s0,sp,32
    50200390:	fea43423          	sd	a0,-24(s0)
    50200394:	fe843503          	ld	a0,-24(s0)
    50200398:	4581                	li	a1,0
    5020039a:	4601                	li	a2,0
    5020039c:	4881                	li	a7,0
    5020039e:	00000073          	ecall
    502003a2:	0001                	nop
    502003a4:	6462                	ld	s0,24(sp)
    502003a6:	6105                	addi	sp,sp,32
    502003a8:	8082                	ret

00000000502003aa <sbi_read_fdt>:
    502003aa:	1101                	addi	sp,sp,-32
    502003ac:	ec22                	sd	s0,24(sp)
    502003ae:	1000                	addi	s0,sp,32
    502003b0:	87aa                	mv	a5,a0
    502003b2:	fef42623          	sw	a5,-20(s0)
    502003b6:	fec42783          	lw	a5,-20(s0)
    502003ba:	853e                	mv	a0,a5
    502003bc:	4581                	li	a1,0
    502003be:	4601                	li	a2,0
    502003c0:	48b1                	li	a7,12
    502003c2:	00000073          	ecall
    502003c6:	87aa                	mv	a5,a0
    502003c8:	2781                	sext.w	a5,a5
    502003ca:	853e                	mv	a0,a5
    502003cc:	6462                	ld	s0,24(sp)
    502003ce:	6105                	addi	sp,sp,32
    502003d0:	8082                	ret

00000000502003d2 <init_pcb_stack>:
    502003d2:	715d                	addi	sp,sp,-80
    502003d4:	e4a2                	sd	s0,72(sp)
    502003d6:	0880                	addi	s0,sp,80
    502003d8:	fca43423          	sd	a0,-56(s0)
    502003dc:	fcb43023          	sd	a1,-64(s0)
    502003e0:	fac43c23          	sd	a2,-72(s0)
    502003e4:	fad43823          	sd	a3,-80(s0)
    502003e8:	fc843783          	ld	a5,-56(s0)
    502003ec:	ee078793          	addi	a5,a5,-288
    502003f0:	fef43423          	sd	a5,-24(s0)
    502003f4:	fe843783          	ld	a5,-24(s0)
    502003f8:	fef43023          	sd	a5,-32(s0)
    502003fc:	fe043783          	ld	a5,-32(s0)
    50200400:	fcf43c23          	sd	a5,-40(s0)
    50200404:	fd843783          	ld	a5,-40(s0)
    50200408:	0007b023          	sd	zero,0(a5)
    5020040c:	fd843783          	ld	a5,-40(s0)
    50200410:	07a1                	addi	a5,a5,8
    50200412:	fb843703          	ld	a4,-72(s0)
    50200416:	e398                	sd	a4,0(a5)
    50200418:	fd843783          	ld	a5,-40(s0)
    5020041c:	07c1                	addi	a5,a5,16
    5020041e:	fe843703          	ld	a4,-24(s0)
    50200422:	e398                	sd	a4,0(a5)
    50200424:	fd843783          	ld	a5,-40(s0)
    50200428:	07e1                	addi	a5,a5,24
    5020042a:	00018713          	mv	a4,gp
    5020042e:	e398                	sd	a4,0(a5)
    50200430:	fd843783          	ld	a5,-40(s0)
    50200434:	02078793          	addi	a5,a5,32
    50200438:	0007b023          	sd	zero,0(a5)
    5020043c:	fd843783          	ld	a5,-40(s0)
    50200440:	02878793          	addi	a5,a5,40
    50200444:	0007b023          	sd	zero,0(a5)
    50200448:	fd843783          	ld	a5,-40(s0)
    5020044c:	03078793          	addi	a5,a5,48
    50200450:	0007b023          	sd	zero,0(a5)
    50200454:	fd843783          	ld	a5,-40(s0)
    50200458:	03878793          	addi	a5,a5,56
    5020045c:	0007b023          	sd	zero,0(a5)
    50200460:	fd843783          	ld	a5,-40(s0)
    50200464:	04078793          	addi	a5,a5,64
    50200468:	0007b023          	sd	zero,0(a5)
    5020046c:	fd843783          	ld	a5,-40(s0)
    50200470:	04878793          	addi	a5,a5,72
    50200474:	0007b023          	sd	zero,0(a5)
    50200478:	fd843783          	ld	a5,-40(s0)
    5020047c:	05078793          	addi	a5,a5,80
    50200480:	0007b023          	sd	zero,0(a5)
    50200484:	fd843783          	ld	a5,-40(s0)
    50200488:	05878793          	addi	a5,a5,88
    5020048c:	0007b023          	sd	zero,0(a5)
    50200490:	fd843783          	ld	a5,-40(s0)
    50200494:	06078793          	addi	a5,a5,96
    50200498:	0007b023          	sd	zero,0(a5)
    5020049c:	fd843783          	ld	a5,-40(s0)
    502004a0:	06878793          	addi	a5,a5,104
    502004a4:	0007b023          	sd	zero,0(a5)
    502004a8:	fd843783          	ld	a5,-40(s0)
    502004ac:	07078793          	addi	a5,a5,112
    502004b0:	0007b023          	sd	zero,0(a5)
    502004b4:	fd843783          	ld	a5,-40(s0)
    502004b8:	07878793          	addi	a5,a5,120
    502004bc:	0007b023          	sd	zero,0(a5)
    502004c0:	fd843783          	ld	a5,-40(s0)
    502004c4:	08078793          	addi	a5,a5,128
    502004c8:	0007b023          	sd	zero,0(a5)
    502004cc:	fd843783          	ld	a5,-40(s0)
    502004d0:	08878793          	addi	a5,a5,136
    502004d4:	0007b023          	sd	zero,0(a5)
    502004d8:	fd843783          	ld	a5,-40(s0)
    502004dc:	09078793          	addi	a5,a5,144
    502004e0:	0007b023          	sd	zero,0(a5)
    502004e4:	fd843783          	ld	a5,-40(s0)
    502004e8:	09878793          	addi	a5,a5,152
    502004ec:	0007b023          	sd	zero,0(a5)
    502004f0:	fd843783          	ld	a5,-40(s0)
    502004f4:	0a078793          	addi	a5,a5,160
    502004f8:	0007b023          	sd	zero,0(a5)
    502004fc:	fd843783          	ld	a5,-40(s0)
    50200500:	0a878793          	addi	a5,a5,168
    50200504:	0007b023          	sd	zero,0(a5)
    50200508:	fd843783          	ld	a5,-40(s0)
    5020050c:	0b078793          	addi	a5,a5,176
    50200510:	0007b023          	sd	zero,0(a5)
    50200514:	fd843783          	ld	a5,-40(s0)
    50200518:	0b878793          	addi	a5,a5,184
    5020051c:	0007b023          	sd	zero,0(a5)
    50200520:	fd843783          	ld	a5,-40(s0)
    50200524:	0c078793          	addi	a5,a5,192
    50200528:	0007b023          	sd	zero,0(a5)
    5020052c:	fd843783          	ld	a5,-40(s0)
    50200530:	0c878793          	addi	a5,a5,200
    50200534:	0007b023          	sd	zero,0(a5)
    50200538:	fd843783          	ld	a5,-40(s0)
    5020053c:	0d078793          	addi	a5,a5,208
    50200540:	0007b023          	sd	zero,0(a5)
    50200544:	fd843783          	ld	a5,-40(s0)
    50200548:	0d878793          	addi	a5,a5,216
    5020054c:	0007b023          	sd	zero,0(a5)
    50200550:	fd843783          	ld	a5,-40(s0)
    50200554:	0e078793          	addi	a5,a5,224
    50200558:	0007b023          	sd	zero,0(a5)
    5020055c:	fd843783          	ld	a5,-40(s0)
    50200560:	0e878793          	addi	a5,a5,232
    50200564:	0007b023          	sd	zero,0(a5)
    50200568:	fd843783          	ld	a5,-40(s0)
    5020056c:	0f078793          	addi	a5,a5,240
    50200570:	0007b023          	sd	zero,0(a5)
    50200574:	fd843783          	ld	a5,-40(s0)
    50200578:	0f878793          	addi	a5,a5,248
    5020057c:	0007b023          	sd	zero,0(a5)
    50200580:	fe043783          	ld	a5,-32(s0)
    50200584:	02000713          	li	a4,32
    50200588:	10e7b023          	sd	a4,256(a5)
    5020058c:	fe043783          	ld	a5,-32(s0)
    50200590:	fb843703          	ld	a4,-72(s0)
    50200594:	10e7b423          	sd	a4,264(a5)
    50200598:	fe043783          	ld	a5,-32(s0)
    5020059c:	1007b823          	sd	zero,272(a5)
    502005a0:	fe043783          	ld	a5,-32(s0)
    502005a4:	4721                	li	a4,8
    502005a6:	10e7bc23          	sd	a4,280(a5)
    502005aa:	fe843783          	ld	a5,-24(s0)
    502005ae:	f9078793          	addi	a5,a5,-112
    502005b2:	fef43423          	sd	a5,-24(s0)
    502005b6:	fe843783          	ld	a5,-24(s0)
    502005ba:	fcf43823          	sd	a5,-48(s0)
    502005be:	fd043783          	ld	a5,-48(s0)
    502005c2:	fcf43c23          	sd	a5,-40(s0)
    502005c6:	fd843783          	ld	a5,-40(s0)
    502005ca:	fb843703          	ld	a4,-72(s0)
    502005ce:	e398                	sd	a4,0(a5)
    502005d0:	fd843783          	ld	a5,-40(s0)
    502005d4:	07a1                	addi	a5,a5,8
    502005d6:	fe843703          	ld	a4,-24(s0)
    502005da:	e398                	sd	a4,0(a5)
    502005dc:	fd843783          	ld	a5,-40(s0)
    502005e0:	07c1                	addi	a5,a5,16
    502005e2:	0007b023          	sd	zero,0(a5)
    502005e6:	fd843783          	ld	a5,-40(s0)
    502005ea:	07e1                	addi	a5,a5,24
    502005ec:	0007b023          	sd	zero,0(a5)
    502005f0:	fd843783          	ld	a5,-40(s0)
    502005f4:	02078793          	addi	a5,a5,32
    502005f8:	0007b023          	sd	zero,0(a5)
    502005fc:	fd843783          	ld	a5,-40(s0)
    50200600:	02878793          	addi	a5,a5,40
    50200604:	0007b023          	sd	zero,0(a5)
    50200608:	fd843783          	ld	a5,-40(s0)
    5020060c:	03078793          	addi	a5,a5,48
    50200610:	0007b023          	sd	zero,0(a5)
    50200614:	fd843783          	ld	a5,-40(s0)
    50200618:	03878793          	addi	a5,a5,56
    5020061c:	0007b023          	sd	zero,0(a5)
    50200620:	fd843783          	ld	a5,-40(s0)
    50200624:	04078793          	addi	a5,a5,64
    50200628:	0007b023          	sd	zero,0(a5)
    5020062c:	fd843783          	ld	a5,-40(s0)
    50200630:	04878793          	addi	a5,a5,72
    50200634:	0007b023          	sd	zero,0(a5)
    50200638:	fd843783          	ld	a5,-40(s0)
    5020063c:	05078793          	addi	a5,a5,80
    50200640:	0007b023          	sd	zero,0(a5)
    50200644:	fd843783          	ld	a5,-40(s0)
    50200648:	05878793          	addi	a5,a5,88
    5020064c:	0007b023          	sd	zero,0(a5)
    50200650:	fd843783          	ld	a5,-40(s0)
    50200654:	06078793          	addi	a5,a5,96
    50200658:	0007b023          	sd	zero,0(a5)
    5020065c:	fd843783          	ld	a5,-40(s0)
    50200660:	06878793          	addi	a5,a5,104
    50200664:	0007b023          	sd	zero,0(a5)
    50200668:	fb043783          	ld	a5,-80(s0)
    5020066c:	fe843703          	ld	a4,-24(s0)
    50200670:	e398                	sd	a4,0(a5)
    50200672:	fb043783          	ld	a5,-80(s0)
    50200676:	fc043703          	ld	a4,-64(s0)
    5020067a:	e798                	sd	a4,8(a5)
    5020067c:	0001                	nop
    5020067e:	6426                	ld	s0,72(sp)
    50200680:	6161                	addi	sp,sp,80
    50200682:	8082                	ret

0000000050200684 <init_pcb>:
    50200684:	7179                	addi	sp,sp,-48
    50200686:	f406                	sd	ra,40(sp)
    50200688:	f022                	sd	s0,32(sp)
    5020068a:	1800                	addi	s0,sp,48
    5020068c:	00004797          	auipc	a5,0x4
    50200690:	1e478793          	addi	a5,a5,484 # 50204870 <pid0_pcb>
    50200694:	4709                	li	a4,2
    50200696:	cfd8                	sw	a4,28(a5)
    50200698:	00004797          	auipc	a5,0x4
    5020069c:	1d878793          	addi	a5,a5,472 # 50204870 <pid0_pcb>
    502006a0:	4709                	li	a4,2
    502006a2:	d398                	sw	a4,32(a5)
    502006a4:	00004797          	auipc	a5,0x4
    502006a8:	1cc78793          	addi	a5,a5,460 # 50204870 <pid0_pcb>
    502006ac:	0407a023          	sw	zero,64(a5)
    502006b0:	00004797          	auipc	a5,0x4
    502006b4:	1c078793          	addi	a5,a5,448 # 50204870 <pid0_pcb>
    502006b8:	0407a223          	sw	zero,68(a5)
    502006bc:	00006797          	auipc	a5,0x6
    502006c0:	7fc78793          	addi	a5,a5,2044 # 50206eb8 <pcb>
    502006c4:	00004717          	auipc	a4,0x4
    502006c8:	1ac70713          	addi	a4,a4,428 # 50204870 <pid0_pcb>
    502006cc:	00073e03          	ld	t3,0(a4)
    502006d0:	00873303          	ld	t1,8(a4)
    502006d4:	01073883          	ld	a7,16(a4)
    502006d8:	01873803          	ld	a6,24(a4)
    502006dc:	7308                	ld	a0,32(a4)
    502006de:	770c                	ld	a1,40(a4)
    502006e0:	7b10                	ld	a2,48(a4)
    502006e2:	7f14                	ld	a3,56(a4)
    502006e4:	6338                	ld	a4,64(a4)
    502006e6:	01c7b023          	sd	t3,0(a5)
    502006ea:	0067b423          	sd	t1,8(a5)
    502006ee:	0117b823          	sd	a7,16(a5)
    502006f2:	0107bc23          	sd	a6,24(a5)
    502006f6:	f388                	sd	a0,32(a5)
    502006f8:	f78c                	sd	a1,40(a5)
    502006fa:	fb90                	sd	a2,48(a5)
    502006fc:	ff94                	sd	a3,56(a5)
    502006fe:	e3b8                	sd	a4,64(a5)
    50200700:	00006797          	auipc	a5,0x6
    50200704:	78078793          	addi	a5,a5,1920 # 50206e80 <ready_queue>
    50200708:	fcf43c23          	sd	a5,-40(s0)
    5020070c:	00006797          	auipc	a5,0x6
    50200710:	77478793          	addi	a5,a5,1908 # 50206e80 <ready_queue>
    50200714:	0007a023          	sw	zero,0(a5)
    50200718:	fe042623          	sw	zero,-20(s0)
    5020071c:	a489                	j	5020095e <init_pcb+0x2da>
    5020071e:	6505                	lui	a0,0x1
    50200720:	60d010ef          	jal	ra,5020252c <kmalloc>
    50200724:	87aa                	mv	a5,a0
    50200726:	873e                	mv	a4,a5
    50200728:	6785                	lui	a5,0x1
    5020072a:	973e                	add	a4,a4,a5
    5020072c:	81818793          	addi	a5,gp,-2024 # 50204d00 <kernel_dynamic_start>
    50200730:	e398                	sd	a4,0(a5)
    50200732:	82018793          	addi	a5,gp,-2016 # 50204d08 <user_dynamic_start>
    50200736:	6398                	ld	a4,0(a5)
    50200738:	6785                	lui	a5,0x1
    5020073a:	973e                	add	a4,a4,a5
    5020073c:	82018793          	addi	a5,gp,-2016 # 50204d08 <user_dynamic_start>
    50200740:	e398                	sd	a4,0(a5)
    50200742:	00004797          	auipc	a5,0x4
    50200746:	5b678793          	addi	a5,a5,1462 # 50204cf8 <process_id>
    5020074a:	4398                	lw	a4,0(a5)
    5020074c:	81818793          	addi	a5,gp,-2024 # 50204d00 <kernel_dynamic_start>
    50200750:	6394                	ld	a3,0(a5)
    50200752:	00006617          	auipc	a2,0x6
    50200756:	76660613          	addi	a2,a2,1894 # 50206eb8 <pcb>
    5020075a:	87ba                	mv	a5,a4
    5020075c:	078e                	slli	a5,a5,0x3
    5020075e:	97ba                	add	a5,a5,a4
    50200760:	078e                	slli	a5,a5,0x3
    50200762:	97b2                	add	a5,a5,a2
    50200764:	ff94                	sd	a3,56(a5)
    50200766:	00004797          	auipc	a5,0x4
    5020076a:	59278793          	addi	a5,a5,1426 # 50204cf8 <process_id>
    5020076e:	4398                	lw	a4,0(a5)
    50200770:	81818793          	addi	a5,gp,-2024 # 50204d00 <kernel_dynamic_start>
    50200774:	6394                	ld	a3,0(a5)
    50200776:	00006617          	auipc	a2,0x6
    5020077a:	74260613          	addi	a2,a2,1858 # 50206eb8 <pcb>
    5020077e:	87ba                	mv	a5,a4
    50200780:	078e                	slli	a5,a5,0x3
    50200782:	97ba                	add	a5,a5,a4
    50200784:	078e                	slli	a5,a5,0x3
    50200786:	97b2                	add	a5,a5,a2
    50200788:	e394                	sd	a3,0(a5)
    5020078a:	00004797          	auipc	a5,0x4
    5020078e:	56e78793          	addi	a5,a5,1390 # 50204cf8 <process_id>
    50200792:	4398                	lw	a4,0(a5)
    50200794:	82018793          	addi	a5,gp,-2016 # 50204d08 <user_dynamic_start>
    50200798:	6394                	ld	a3,0(a5)
    5020079a:	00006617          	auipc	a2,0x6
    5020079e:	71e60613          	addi	a2,a2,1822 # 50206eb8 <pcb>
    502007a2:	87ba                	mv	a5,a4
    502007a4:	078e                	slli	a5,a5,0x3
    502007a6:	97ba                	add	a5,a5,a4
    502007a8:	078e                	slli	a5,a5,0x3
    502007aa:	97b2                	add	a5,a5,a2
    502007ac:	e794                	sd	a3,8(a5)
    502007ae:	00004797          	auipc	a5,0x4
    502007b2:	54a78793          	addi	a5,a5,1354 # 50204cf8 <process_id>
    502007b6:	4398                	lw	a4,0(a5)
    502007b8:	00006697          	auipc	a3,0x6
    502007bc:	70068693          	addi	a3,a3,1792 # 50206eb8 <pcb>
    502007c0:	87ba                	mv	a5,a4
    502007c2:	078e                	slli	a5,a5,0x3
    502007c4:	97ba                	add	a5,a5,a4
    502007c6:	078e                	slli	a5,a5,0x3
    502007c8:	97b6                	add	a5,a5,a3
    502007ca:	0007b823          	sd	zero,16(a5)
    502007ce:	00004797          	auipc	a5,0x4
    502007d2:	52a78793          	addi	a5,a5,1322 # 50204cf8 <process_id>
    502007d6:	4398                	lw	a4,0(a5)
    502007d8:	00004797          	auipc	a5,0x4
    502007dc:	52078793          	addi	a5,a5,1312 # 50204cf8 <process_id>
    502007e0:	4394                	lw	a3,0(a5)
    502007e2:	00006617          	auipc	a2,0x6
    502007e6:	6d660613          	addi	a2,a2,1750 # 50206eb8 <pcb>
    502007ea:	87ba                	mv	a5,a4
    502007ec:	078e                	slli	a5,a5,0x3
    502007ee:	97ba                	add	a5,a5,a4
    502007f0:	078e                	slli	a5,a5,0x3
    502007f2:	97b2                	add	a5,a5,a2
    502007f4:	cf94                	sw	a3,24(a5)
    502007f6:	00004717          	auipc	a4,0x4
    502007fa:	2f270713          	addi	a4,a4,754 # 50204ae8 <sched2_tasks>
    502007fe:	fec42783          	lw	a5,-20(s0)
    50200802:	078e                	slli	a5,a5,0x3
    50200804:	97ba                	add	a5,a5,a4
    50200806:	639c                	ld	a5,0(a5)
    50200808:	00004717          	auipc	a4,0x4
    5020080c:	4f070713          	addi	a4,a4,1264 # 50204cf8 <process_id>
    50200810:	4318                	lw	a4,0(a4)
    50200812:	4794                	lw	a3,8(a5)
    50200814:	00006617          	auipc	a2,0x6
    50200818:	6a460613          	addi	a2,a2,1700 # 50206eb8 <pcb>
    5020081c:	87ba                	mv	a5,a4
    5020081e:	078e                	slli	a5,a5,0x3
    50200820:	97ba                	add	a5,a5,a4
    50200822:	078e                	slli	a5,a5,0x3
    50200824:	97b2                	add	a5,a5,a2
    50200826:	cfd4                	sw	a3,28(a5)
    50200828:	00004797          	auipc	a5,0x4
    5020082c:	4d078793          	addi	a5,a5,1232 # 50204cf8 <process_id>
    50200830:	4398                	lw	a4,0(a5)
    50200832:	00006697          	auipc	a3,0x6
    50200836:	68668693          	addi	a3,a3,1670 # 50206eb8 <pcb>
    5020083a:	87ba                	mv	a5,a4
    5020083c:	078e                	slli	a5,a5,0x3
    5020083e:	97ba                	add	a5,a5,a4
    50200840:	078e                	slli	a5,a5,0x3
    50200842:	97b6                	add	a5,a5,a3
    50200844:	4709                	li	a4,2
    50200846:	d398                	sw	a4,32(a5)
    50200848:	00004797          	auipc	a5,0x4
    5020084c:	4b078793          	addi	a5,a5,1200 # 50204cf8 <process_id>
    50200850:	4398                	lw	a4,0(a5)
    50200852:	00006697          	auipc	a3,0x6
    50200856:	66668693          	addi	a3,a3,1638 # 50206eb8 <pcb>
    5020085a:	87ba                	mv	a5,a4
    5020085c:	078e                	slli	a5,a5,0x3
    5020085e:	97ba                	add	a5,a5,a4
    50200860:	078e                	slli	a5,a5,0x3
    50200862:	97b6                	add	a5,a5,a3
    50200864:	0407a023          	sw	zero,64(a5)
    50200868:	00004797          	auipc	a5,0x4
    5020086c:	49078793          	addi	a5,a5,1168 # 50204cf8 <process_id>
    50200870:	4398                	lw	a4,0(a5)
    50200872:	00006697          	auipc	a3,0x6
    50200876:	64668693          	addi	a3,a3,1606 # 50206eb8 <pcb>
    5020087a:	87ba                	mv	a5,a4
    5020087c:	078e                	slli	a5,a5,0x3
    5020087e:	97ba                	add	a5,a5,a4
    50200880:	078e                	slli	a5,a5,0x3
    50200882:	97b6                	add	a5,a5,a3
    50200884:	0407a223          	sw	zero,68(a5)
    50200888:	00004797          	auipc	a5,0x4
    5020088c:	47078793          	addi	a5,a5,1136 # 50204cf8 <process_id>
    50200890:	4398                	lw	a4,0(a5)
    50200892:	00006697          	auipc	a3,0x6
    50200896:	62668693          	addi	a3,a3,1574 # 50206eb8 <pcb>
    5020089a:	87ba                	mv	a5,a4
    5020089c:	078e                	slli	a5,a5,0x3
    5020089e:	97ba                	add	a5,a5,a4
    502008a0:	078e                	slli	a5,a5,0x3
    502008a2:	97b6                	add	a5,a5,a3
    502008a4:	0207b423          	sd	zero,40(a5)
    502008a8:	81818793          	addi	a5,gp,-2024 # 50204d00 <kernel_dynamic_start>
    502008ac:	6388                	ld	a0,0(a5)
    502008ae:	82018793          	addi	a5,gp,-2016 # 50204d08 <user_dynamic_start>
    502008b2:	638c                	ld	a1,0(a5)
    502008b4:	00004717          	auipc	a4,0x4
    502008b8:	23470713          	addi	a4,a4,564 # 50204ae8 <sched2_tasks>
    502008bc:	fec42783          	lw	a5,-20(s0)
    502008c0:	078e                	slli	a5,a5,0x3
    502008c2:	97ba                	add	a5,a5,a4
    502008c4:	639c                	ld	a5,0(a5)
    502008c6:	6390                	ld	a2,0(a5)
    502008c8:	00004797          	auipc	a5,0x4
    502008cc:	43078793          	addi	a5,a5,1072 # 50204cf8 <process_id>
    502008d0:	4398                	lw	a4,0(a5)
    502008d2:	87ba                	mv	a5,a4
    502008d4:	078e                	slli	a5,a5,0x3
    502008d6:	97ba                	add	a5,a5,a4
    502008d8:	078e                	slli	a5,a5,0x3
    502008da:	00006717          	auipc	a4,0x6
    502008de:	5de70713          	addi	a4,a4,1502 # 50206eb8 <pcb>
    502008e2:	97ba                	add	a5,a5,a4
    502008e4:	86be                	mv	a3,a5
    502008e6:	aedff0ef          	jal	ra,502003d2 <init_pcb_stack>
    502008ea:	4561                	li	a0,24
    502008ec:	441010ef          	jal	ra,5020252c <kmalloc>
    502008f0:	fea43023          	sd	a0,-32(s0)
    502008f4:	00004797          	auipc	a5,0x4
    502008f8:	40478793          	addi	a5,a5,1028 # 50204cf8 <process_id>
    502008fc:	4398                	lw	a4,0(a5)
    502008fe:	fe043783          	ld	a5,-32(s0)
    50200902:	c398                	sw	a4,0(a5)
    50200904:	fe043783          	ld	a5,-32(s0)
    50200908:	fd843703          	ld	a4,-40(s0)
    5020090c:	eb98                	sd	a4,16(a5)
    5020090e:	fd843783          	ld	a5,-40(s0)
    50200912:	fe043703          	ld	a4,-32(s0)
    50200916:	e798                	sd	a4,8(a5)
    50200918:	00006797          	auipc	a5,0x6
    5020091c:	56878793          	addi	a5,a5,1384 # 50206e80 <ready_queue>
    50200920:	439c                	lw	a5,0(a5)
    50200922:	2785                	addiw	a5,a5,1
    50200924:	0007871b          	sext.w	a4,a5
    50200928:	00006797          	auipc	a5,0x6
    5020092c:	55878793          	addi	a5,a5,1368 # 50206e80 <ready_queue>
    50200930:	c398                	sw	a4,0(a5)
    50200932:	fe043783          	ld	a5,-32(s0)
    50200936:	fcf43c23          	sd	a5,-40(s0)
    5020093a:	00004797          	auipc	a5,0x4
    5020093e:	3be78793          	addi	a5,a5,958 # 50204cf8 <process_id>
    50200942:	439c                	lw	a5,0(a5)
    50200944:	2785                	addiw	a5,a5,1
    50200946:	0007871b          	sext.w	a4,a5
    5020094a:	00004797          	auipc	a5,0x4
    5020094e:	3ae78793          	addi	a5,a5,942 # 50204cf8 <process_id>
    50200952:	c398                	sw	a4,0(a5)
    50200954:	fec42783          	lw	a5,-20(s0)
    50200958:	2785                	addiw	a5,a5,1
    5020095a:	fef42623          	sw	a5,-20(s0)
    5020095e:	83c18793          	addi	a5,gp,-1988 # 50204d24 <num_sched2_tasks>
    50200962:	4398                	lw	a4,0(a5)
    50200964:	fec42783          	lw	a5,-20(s0)
    50200968:	2781                	sext.w	a5,a5
    5020096a:	dae7cae3          	blt	a5,a4,5020071e <init_pcb+0x9a>
    5020096e:	fe042623          	sw	zero,-20(s0)
    50200972:	a489                	j	50200bb4 <init_pcb+0x530>
    50200974:	6505                	lui	a0,0x1
    50200976:	3b7010ef          	jal	ra,5020252c <kmalloc>
    5020097a:	87aa                	mv	a5,a0
    5020097c:	873e                	mv	a4,a5
    5020097e:	6785                	lui	a5,0x1
    50200980:	973e                	add	a4,a4,a5
    50200982:	81818793          	addi	a5,gp,-2024 # 50204d00 <kernel_dynamic_start>
    50200986:	e398                	sd	a4,0(a5)
    50200988:	82018793          	addi	a5,gp,-2016 # 50204d08 <user_dynamic_start>
    5020098c:	6398                	ld	a4,0(a5)
    5020098e:	6785                	lui	a5,0x1
    50200990:	973e                	add	a4,a4,a5
    50200992:	82018793          	addi	a5,gp,-2016 # 50204d08 <user_dynamic_start>
    50200996:	e398                	sd	a4,0(a5)
    50200998:	00004797          	auipc	a5,0x4
    5020099c:	36078793          	addi	a5,a5,864 # 50204cf8 <process_id>
    502009a0:	4398                	lw	a4,0(a5)
    502009a2:	81818793          	addi	a5,gp,-2024 # 50204d00 <kernel_dynamic_start>
    502009a6:	6394                	ld	a3,0(a5)
    502009a8:	00006617          	auipc	a2,0x6
    502009ac:	51060613          	addi	a2,a2,1296 # 50206eb8 <pcb>
    502009b0:	87ba                	mv	a5,a4
    502009b2:	078e                	slli	a5,a5,0x3
    502009b4:	97ba                	add	a5,a5,a4
    502009b6:	078e                	slli	a5,a5,0x3
    502009b8:	97b2                	add	a5,a5,a2
    502009ba:	ff94                	sd	a3,56(a5)
    502009bc:	00004797          	auipc	a5,0x4
    502009c0:	33c78793          	addi	a5,a5,828 # 50204cf8 <process_id>
    502009c4:	4398                	lw	a4,0(a5)
    502009c6:	81818793          	addi	a5,gp,-2024 # 50204d00 <kernel_dynamic_start>
    502009ca:	6394                	ld	a3,0(a5)
    502009cc:	00006617          	auipc	a2,0x6
    502009d0:	4ec60613          	addi	a2,a2,1260 # 50206eb8 <pcb>
    502009d4:	87ba                	mv	a5,a4
    502009d6:	078e                	slli	a5,a5,0x3
    502009d8:	97ba                	add	a5,a5,a4
    502009da:	078e                	slli	a5,a5,0x3
    502009dc:	97b2                	add	a5,a5,a2
    502009de:	e394                	sd	a3,0(a5)
    502009e0:	00004797          	auipc	a5,0x4
    502009e4:	31878793          	addi	a5,a5,792 # 50204cf8 <process_id>
    502009e8:	4398                	lw	a4,0(a5)
    502009ea:	82018793          	addi	a5,gp,-2016 # 50204d08 <user_dynamic_start>
    502009ee:	6394                	ld	a3,0(a5)
    502009f0:	00006617          	auipc	a2,0x6
    502009f4:	4c860613          	addi	a2,a2,1224 # 50206eb8 <pcb>
    502009f8:	87ba                	mv	a5,a4
    502009fa:	078e                	slli	a5,a5,0x3
    502009fc:	97ba                	add	a5,a5,a4
    502009fe:	078e                	slli	a5,a5,0x3
    50200a00:	97b2                	add	a5,a5,a2
    50200a02:	e794                	sd	a3,8(a5)
    50200a04:	00004797          	auipc	a5,0x4
    50200a08:	2f478793          	addi	a5,a5,756 # 50204cf8 <process_id>
    50200a0c:	4398                	lw	a4,0(a5)
    50200a0e:	00006697          	auipc	a3,0x6
    50200a12:	4aa68693          	addi	a3,a3,1194 # 50206eb8 <pcb>
    50200a16:	87ba                	mv	a5,a4
    50200a18:	078e                	slli	a5,a5,0x3
    50200a1a:	97ba                	add	a5,a5,a4
    50200a1c:	078e                	slli	a5,a5,0x3
    50200a1e:	97b6                	add	a5,a5,a3
    50200a20:	0007b823          	sd	zero,16(a5)
    50200a24:	00004797          	auipc	a5,0x4
    50200a28:	2d478793          	addi	a5,a5,724 # 50204cf8 <process_id>
    50200a2c:	4398                	lw	a4,0(a5)
    50200a2e:	00004797          	auipc	a5,0x4
    50200a32:	2ca78793          	addi	a5,a5,714 # 50204cf8 <process_id>
    50200a36:	4394                	lw	a3,0(a5)
    50200a38:	00006617          	auipc	a2,0x6
    50200a3c:	48060613          	addi	a2,a2,1152 # 50206eb8 <pcb>
    50200a40:	87ba                	mv	a5,a4
    50200a42:	078e                	slli	a5,a5,0x3
    50200a44:	97ba                	add	a5,a5,a4
    50200a46:	078e                	slli	a5,a5,0x3
    50200a48:	97b2                	add	a5,a5,a2
    50200a4a:	cf94                	sw	a3,24(a5)
    50200a4c:	00004717          	auipc	a4,0x4
    50200a50:	09c70713          	addi	a4,a4,156 # 50204ae8 <sched2_tasks>
    50200a54:	fec42783          	lw	a5,-20(s0)
    50200a58:	078e                	slli	a5,a5,0x3
    50200a5a:	97ba                	add	a5,a5,a4
    50200a5c:	639c                	ld	a5,0(a5)
    50200a5e:	00004717          	auipc	a4,0x4
    50200a62:	29a70713          	addi	a4,a4,666 # 50204cf8 <process_id>
    50200a66:	4318                	lw	a4,0(a4)
    50200a68:	4794                	lw	a3,8(a5)
    50200a6a:	00006617          	auipc	a2,0x6
    50200a6e:	44e60613          	addi	a2,a2,1102 # 50206eb8 <pcb>
    50200a72:	87ba                	mv	a5,a4
    50200a74:	078e                	slli	a5,a5,0x3
    50200a76:	97ba                	add	a5,a5,a4
    50200a78:	078e                	slli	a5,a5,0x3
    50200a7a:	97b2                	add	a5,a5,a2
    50200a7c:	cfd4                	sw	a3,28(a5)
    50200a7e:	00004797          	auipc	a5,0x4
    50200a82:	27a78793          	addi	a5,a5,634 # 50204cf8 <process_id>
    50200a86:	4398                	lw	a4,0(a5)
    50200a88:	00006697          	auipc	a3,0x6
    50200a8c:	43068693          	addi	a3,a3,1072 # 50206eb8 <pcb>
    50200a90:	87ba                	mv	a5,a4
    50200a92:	078e                	slli	a5,a5,0x3
    50200a94:	97ba                	add	a5,a5,a4
    50200a96:	078e                	slli	a5,a5,0x3
    50200a98:	97b6                	add	a5,a5,a3
    50200a9a:	4709                	li	a4,2
    50200a9c:	d398                	sw	a4,32(a5)
    50200a9e:	00004797          	auipc	a5,0x4
    50200aa2:	25a78793          	addi	a5,a5,602 # 50204cf8 <process_id>
    50200aa6:	4398                	lw	a4,0(a5)
    50200aa8:	00006697          	auipc	a3,0x6
    50200aac:	41068693          	addi	a3,a3,1040 # 50206eb8 <pcb>
    50200ab0:	87ba                	mv	a5,a4
    50200ab2:	078e                	slli	a5,a5,0x3
    50200ab4:	97ba                	add	a5,a5,a4
    50200ab6:	078e                	slli	a5,a5,0x3
    50200ab8:	97b6                	add	a5,a5,a3
    50200aba:	0407a023          	sw	zero,64(a5)
    50200abe:	00004797          	auipc	a5,0x4
    50200ac2:	23a78793          	addi	a5,a5,570 # 50204cf8 <process_id>
    50200ac6:	4398                	lw	a4,0(a5)
    50200ac8:	00006697          	auipc	a3,0x6
    50200acc:	3f068693          	addi	a3,a3,1008 # 50206eb8 <pcb>
    50200ad0:	87ba                	mv	a5,a4
    50200ad2:	078e                	slli	a5,a5,0x3
    50200ad4:	97ba                	add	a5,a5,a4
    50200ad6:	078e                	slli	a5,a5,0x3
    50200ad8:	97b6                	add	a5,a5,a3
    50200ada:	0407a223          	sw	zero,68(a5)
    50200ade:	00004797          	auipc	a5,0x4
    50200ae2:	21a78793          	addi	a5,a5,538 # 50204cf8 <process_id>
    50200ae6:	4398                	lw	a4,0(a5)
    50200ae8:	00006697          	auipc	a3,0x6
    50200aec:	3d068693          	addi	a3,a3,976 # 50206eb8 <pcb>
    50200af0:	87ba                	mv	a5,a4
    50200af2:	078e                	slli	a5,a5,0x3
    50200af4:	97ba                	add	a5,a5,a4
    50200af6:	078e                	slli	a5,a5,0x3
    50200af8:	97b6                	add	a5,a5,a3
    50200afa:	0207b423          	sd	zero,40(a5)
    50200afe:	81818793          	addi	a5,gp,-2024 # 50204d00 <kernel_dynamic_start>
    50200b02:	6388                	ld	a0,0(a5)
    50200b04:	82018793          	addi	a5,gp,-2016 # 50204d08 <user_dynamic_start>
    50200b08:	638c                	ld	a1,0(a5)
    50200b0a:	00004717          	auipc	a4,0x4
    50200b0e:	07e70713          	addi	a4,a4,126 # 50204b88 <lock2_tasks>
    50200b12:	fec42783          	lw	a5,-20(s0)
    50200b16:	078e                	slli	a5,a5,0x3
    50200b18:	97ba                	add	a5,a5,a4
    50200b1a:	639c                	ld	a5,0(a5)
    50200b1c:	6390                	ld	a2,0(a5)
    50200b1e:	00004797          	auipc	a5,0x4
    50200b22:	1da78793          	addi	a5,a5,474 # 50204cf8 <process_id>
    50200b26:	4398                	lw	a4,0(a5)
    50200b28:	87ba                	mv	a5,a4
    50200b2a:	078e                	slli	a5,a5,0x3
    50200b2c:	97ba                	add	a5,a5,a4
    50200b2e:	078e                	slli	a5,a5,0x3
    50200b30:	00006717          	auipc	a4,0x6
    50200b34:	38870713          	addi	a4,a4,904 # 50206eb8 <pcb>
    50200b38:	97ba                	add	a5,a5,a4
    50200b3a:	86be                	mv	a3,a5
    50200b3c:	897ff0ef          	jal	ra,502003d2 <init_pcb_stack>
    50200b40:	4561                	li	a0,24
    50200b42:	1eb010ef          	jal	ra,5020252c <kmalloc>
    50200b46:	fea43023          	sd	a0,-32(s0)
    50200b4a:	00004797          	auipc	a5,0x4
    50200b4e:	1ae78793          	addi	a5,a5,430 # 50204cf8 <process_id>
    50200b52:	4398                	lw	a4,0(a5)
    50200b54:	fe043783          	ld	a5,-32(s0)
    50200b58:	c398                	sw	a4,0(a5)
    50200b5a:	fe043783          	ld	a5,-32(s0)
    50200b5e:	fd843703          	ld	a4,-40(s0)
    50200b62:	eb98                	sd	a4,16(a5)
    50200b64:	fd843783          	ld	a5,-40(s0)
    50200b68:	fe043703          	ld	a4,-32(s0)
    50200b6c:	e798                	sd	a4,8(a5)
    50200b6e:	00006797          	auipc	a5,0x6
    50200b72:	31278793          	addi	a5,a5,786 # 50206e80 <ready_queue>
    50200b76:	439c                	lw	a5,0(a5)
    50200b78:	2785                	addiw	a5,a5,1
    50200b7a:	0007871b          	sext.w	a4,a5
    50200b7e:	00006797          	auipc	a5,0x6
    50200b82:	30278793          	addi	a5,a5,770 # 50206e80 <ready_queue>
    50200b86:	c398                	sw	a4,0(a5)
    50200b88:	fe043783          	ld	a5,-32(s0)
    50200b8c:	fcf43c23          	sd	a5,-40(s0)
    50200b90:	00004797          	auipc	a5,0x4
    50200b94:	16878793          	addi	a5,a5,360 # 50204cf8 <process_id>
    50200b98:	439c                	lw	a5,0(a5)
    50200b9a:	2785                	addiw	a5,a5,1
    50200b9c:	0007871b          	sext.w	a4,a5
    50200ba0:	00004797          	auipc	a5,0x4
    50200ba4:	15878793          	addi	a5,a5,344 # 50204cf8 <process_id>
    50200ba8:	c398                	sw	a4,0(a5)
    50200baa:	fec42783          	lw	a5,-20(s0)
    50200bae:	2785                	addiw	a5,a5,1
    50200bb0:	fef42623          	sw	a5,-20(s0)
    50200bb4:	84018793          	addi	a5,gp,-1984 # 50204d28 <num_lock2_tasks>
    50200bb8:	4398                	lw	a4,0(a5)
    50200bba:	fec42783          	lw	a5,-20(s0)
    50200bbe:	2781                	sext.w	a5,a5
    50200bc0:	dae7cae3          	blt	a5,a4,50200974 <init_pcb+0x2f0>
    50200bc4:	fe042623          	sw	zero,-20(s0)
    50200bc8:	a489                	j	50200e0a <init_pcb+0x786>
    50200bca:	6505                	lui	a0,0x1
    50200bcc:	161010ef          	jal	ra,5020252c <kmalloc>
    50200bd0:	87aa                	mv	a5,a0
    50200bd2:	873e                	mv	a4,a5
    50200bd4:	6785                	lui	a5,0x1
    50200bd6:	973e                	add	a4,a4,a5
    50200bd8:	81818793          	addi	a5,gp,-2024 # 50204d00 <kernel_dynamic_start>
    50200bdc:	e398                	sd	a4,0(a5)
    50200bde:	82018793          	addi	a5,gp,-2016 # 50204d08 <user_dynamic_start>
    50200be2:	6398                	ld	a4,0(a5)
    50200be4:	6785                	lui	a5,0x1
    50200be6:	973e                	add	a4,a4,a5
    50200be8:	82018793          	addi	a5,gp,-2016 # 50204d08 <user_dynamic_start>
    50200bec:	e398                	sd	a4,0(a5)
    50200bee:	00004797          	auipc	a5,0x4
    50200bf2:	10a78793          	addi	a5,a5,266 # 50204cf8 <process_id>
    50200bf6:	4398                	lw	a4,0(a5)
    50200bf8:	81818793          	addi	a5,gp,-2024 # 50204d00 <kernel_dynamic_start>
    50200bfc:	6394                	ld	a3,0(a5)
    50200bfe:	00006617          	auipc	a2,0x6
    50200c02:	2ba60613          	addi	a2,a2,698 # 50206eb8 <pcb>
    50200c06:	87ba                	mv	a5,a4
    50200c08:	078e                	slli	a5,a5,0x3
    50200c0a:	97ba                	add	a5,a5,a4
    50200c0c:	078e                	slli	a5,a5,0x3
    50200c0e:	97b2                	add	a5,a5,a2
    50200c10:	ff94                	sd	a3,56(a5)
    50200c12:	00004797          	auipc	a5,0x4
    50200c16:	0e678793          	addi	a5,a5,230 # 50204cf8 <process_id>
    50200c1a:	4398                	lw	a4,0(a5)
    50200c1c:	81818793          	addi	a5,gp,-2024 # 50204d00 <kernel_dynamic_start>
    50200c20:	6394                	ld	a3,0(a5)
    50200c22:	00006617          	auipc	a2,0x6
    50200c26:	29660613          	addi	a2,a2,662 # 50206eb8 <pcb>
    50200c2a:	87ba                	mv	a5,a4
    50200c2c:	078e                	slli	a5,a5,0x3
    50200c2e:	97ba                	add	a5,a5,a4
    50200c30:	078e                	slli	a5,a5,0x3
    50200c32:	97b2                	add	a5,a5,a2
    50200c34:	e394                	sd	a3,0(a5)
    50200c36:	00004797          	auipc	a5,0x4
    50200c3a:	0c278793          	addi	a5,a5,194 # 50204cf8 <process_id>
    50200c3e:	4398                	lw	a4,0(a5)
    50200c40:	82018793          	addi	a5,gp,-2016 # 50204d08 <user_dynamic_start>
    50200c44:	6394                	ld	a3,0(a5)
    50200c46:	00006617          	auipc	a2,0x6
    50200c4a:	27260613          	addi	a2,a2,626 # 50206eb8 <pcb>
    50200c4e:	87ba                	mv	a5,a4
    50200c50:	078e                	slli	a5,a5,0x3
    50200c52:	97ba                	add	a5,a5,a4
    50200c54:	078e                	slli	a5,a5,0x3
    50200c56:	97b2                	add	a5,a5,a2
    50200c58:	e794                	sd	a3,8(a5)
    50200c5a:	00004797          	auipc	a5,0x4
    50200c5e:	09e78793          	addi	a5,a5,158 # 50204cf8 <process_id>
    50200c62:	4398                	lw	a4,0(a5)
    50200c64:	00006697          	auipc	a3,0x6
    50200c68:	25468693          	addi	a3,a3,596 # 50206eb8 <pcb>
    50200c6c:	87ba                	mv	a5,a4
    50200c6e:	078e                	slli	a5,a5,0x3
    50200c70:	97ba                	add	a5,a5,a4
    50200c72:	078e                	slli	a5,a5,0x3
    50200c74:	97b6                	add	a5,a5,a3
    50200c76:	0007b823          	sd	zero,16(a5)
    50200c7a:	00004797          	auipc	a5,0x4
    50200c7e:	07e78793          	addi	a5,a5,126 # 50204cf8 <process_id>
    50200c82:	4398                	lw	a4,0(a5)
    50200c84:	00004797          	auipc	a5,0x4
    50200c88:	07478793          	addi	a5,a5,116 # 50204cf8 <process_id>
    50200c8c:	4394                	lw	a3,0(a5)
    50200c8e:	00006617          	auipc	a2,0x6
    50200c92:	22a60613          	addi	a2,a2,554 # 50206eb8 <pcb>
    50200c96:	87ba                	mv	a5,a4
    50200c98:	078e                	slli	a5,a5,0x3
    50200c9a:	97ba                	add	a5,a5,a4
    50200c9c:	078e                	slli	a5,a5,0x3
    50200c9e:	97b2                	add	a5,a5,a2
    50200ca0:	cf94                	sw	a3,24(a5)
    50200ca2:	00004717          	auipc	a4,0x4
    50200ca6:	e4670713          	addi	a4,a4,-442 # 50204ae8 <sched2_tasks>
    50200caa:	fec42783          	lw	a5,-20(s0)
    50200cae:	078e                	slli	a5,a5,0x3
    50200cb0:	97ba                	add	a5,a5,a4
    50200cb2:	639c                	ld	a5,0(a5)
    50200cb4:	00004717          	auipc	a4,0x4
    50200cb8:	04470713          	addi	a4,a4,68 # 50204cf8 <process_id>
    50200cbc:	4318                	lw	a4,0(a4)
    50200cbe:	4794                	lw	a3,8(a5)
    50200cc0:	00006617          	auipc	a2,0x6
    50200cc4:	1f860613          	addi	a2,a2,504 # 50206eb8 <pcb>
    50200cc8:	87ba                	mv	a5,a4
    50200cca:	078e                	slli	a5,a5,0x3
    50200ccc:	97ba                	add	a5,a5,a4
    50200cce:	078e                	slli	a5,a5,0x3
    50200cd0:	97b2                	add	a5,a5,a2
    50200cd2:	cfd4                	sw	a3,28(a5)
    50200cd4:	00004797          	auipc	a5,0x4
    50200cd8:	02478793          	addi	a5,a5,36 # 50204cf8 <process_id>
    50200cdc:	4398                	lw	a4,0(a5)
    50200cde:	00006697          	auipc	a3,0x6
    50200ce2:	1da68693          	addi	a3,a3,474 # 50206eb8 <pcb>
    50200ce6:	87ba                	mv	a5,a4
    50200ce8:	078e                	slli	a5,a5,0x3
    50200cea:	97ba                	add	a5,a5,a4
    50200cec:	078e                	slli	a5,a5,0x3
    50200cee:	97b6                	add	a5,a5,a3
    50200cf0:	4709                	li	a4,2
    50200cf2:	d398                	sw	a4,32(a5)
    50200cf4:	00004797          	auipc	a5,0x4
    50200cf8:	00478793          	addi	a5,a5,4 # 50204cf8 <process_id>
    50200cfc:	4398                	lw	a4,0(a5)
    50200cfe:	00006697          	auipc	a3,0x6
    50200d02:	1ba68693          	addi	a3,a3,442 # 50206eb8 <pcb>
    50200d06:	87ba                	mv	a5,a4
    50200d08:	078e                	slli	a5,a5,0x3
    50200d0a:	97ba                	add	a5,a5,a4
    50200d0c:	078e                	slli	a5,a5,0x3
    50200d0e:	97b6                	add	a5,a5,a3
    50200d10:	0407a023          	sw	zero,64(a5)
    50200d14:	00004797          	auipc	a5,0x4
    50200d18:	fe478793          	addi	a5,a5,-28 # 50204cf8 <process_id>
    50200d1c:	4398                	lw	a4,0(a5)
    50200d1e:	00006697          	auipc	a3,0x6
    50200d22:	19a68693          	addi	a3,a3,410 # 50206eb8 <pcb>
    50200d26:	87ba                	mv	a5,a4
    50200d28:	078e                	slli	a5,a5,0x3
    50200d2a:	97ba                	add	a5,a5,a4
    50200d2c:	078e                	slli	a5,a5,0x3
    50200d2e:	97b6                	add	a5,a5,a3
    50200d30:	0407a223          	sw	zero,68(a5)
    50200d34:	00004797          	auipc	a5,0x4
    50200d38:	fc478793          	addi	a5,a5,-60 # 50204cf8 <process_id>
    50200d3c:	4398                	lw	a4,0(a5)
    50200d3e:	00006697          	auipc	a3,0x6
    50200d42:	17a68693          	addi	a3,a3,378 # 50206eb8 <pcb>
    50200d46:	87ba                	mv	a5,a4
    50200d48:	078e                	slli	a5,a5,0x3
    50200d4a:	97ba                	add	a5,a5,a4
    50200d4c:	078e                	slli	a5,a5,0x3
    50200d4e:	97b6                	add	a5,a5,a3
    50200d50:	0207b423          	sd	zero,40(a5)
    50200d54:	81818793          	addi	a5,gp,-2024 # 50204d00 <kernel_dynamic_start>
    50200d58:	6388                	ld	a0,0(a5)
    50200d5a:	82018793          	addi	a5,gp,-2016 # 50204d08 <user_dynamic_start>
    50200d5e:	638c                	ld	a1,0(a5)
    50200d60:	00004717          	auipc	a4,0x4
    50200d64:	cc870713          	addi	a4,a4,-824 # 50204a28 <timer_tasks>
    50200d68:	fec42783          	lw	a5,-20(s0)
    50200d6c:	078e                	slli	a5,a5,0x3
    50200d6e:	97ba                	add	a5,a5,a4
    50200d70:	639c                	ld	a5,0(a5)
    50200d72:	6390                	ld	a2,0(a5)
    50200d74:	00004797          	auipc	a5,0x4
    50200d78:	f8478793          	addi	a5,a5,-124 # 50204cf8 <process_id>
    50200d7c:	4398                	lw	a4,0(a5)
    50200d7e:	87ba                	mv	a5,a4
    50200d80:	078e                	slli	a5,a5,0x3
    50200d82:	97ba                	add	a5,a5,a4
    50200d84:	078e                	slli	a5,a5,0x3
    50200d86:	00006717          	auipc	a4,0x6
    50200d8a:	13270713          	addi	a4,a4,306 # 50206eb8 <pcb>
    50200d8e:	97ba                	add	a5,a5,a4
    50200d90:	86be                	mv	a3,a5
    50200d92:	e40ff0ef          	jal	ra,502003d2 <init_pcb_stack>
    50200d96:	4561                	li	a0,24
    50200d98:	794010ef          	jal	ra,5020252c <kmalloc>
    50200d9c:	fea43023          	sd	a0,-32(s0)
    50200da0:	00004797          	auipc	a5,0x4
    50200da4:	f5878793          	addi	a5,a5,-168 # 50204cf8 <process_id>
    50200da8:	4398                	lw	a4,0(a5)
    50200daa:	fe043783          	ld	a5,-32(s0)
    50200dae:	c398                	sw	a4,0(a5)
    50200db0:	fe043783          	ld	a5,-32(s0)
    50200db4:	fd843703          	ld	a4,-40(s0)
    50200db8:	eb98                	sd	a4,16(a5)
    50200dba:	fd843783          	ld	a5,-40(s0)
    50200dbe:	fe043703          	ld	a4,-32(s0)
    50200dc2:	e798                	sd	a4,8(a5)
    50200dc4:	00006797          	auipc	a5,0x6
    50200dc8:	0bc78793          	addi	a5,a5,188 # 50206e80 <ready_queue>
    50200dcc:	439c                	lw	a5,0(a5)
    50200dce:	2785                	addiw	a5,a5,1
    50200dd0:	0007871b          	sext.w	a4,a5
    50200dd4:	00006797          	auipc	a5,0x6
    50200dd8:	0ac78793          	addi	a5,a5,172 # 50206e80 <ready_queue>
    50200ddc:	c398                	sw	a4,0(a5)
    50200dde:	fe043783          	ld	a5,-32(s0)
    50200de2:	fcf43c23          	sd	a5,-40(s0)
    50200de6:	00004797          	auipc	a5,0x4
    50200dea:	f1278793          	addi	a5,a5,-238 # 50204cf8 <process_id>
    50200dee:	439c                	lw	a5,0(a5)
    50200df0:	2785                	addiw	a5,a5,1
    50200df2:	0007871b          	sext.w	a4,a5
    50200df6:	00004797          	auipc	a5,0x4
    50200dfa:	f0278793          	addi	a5,a5,-254 # 50204cf8 <process_id>
    50200dfe:	c398                	sw	a4,0(a5)
    50200e00:	fec42783          	lw	a5,-20(s0)
    50200e04:	2785                	addiw	a5,a5,1
    50200e06:	fef42623          	sw	a5,-20(s0)
    50200e0a:	83818793          	addi	a5,gp,-1992 # 50204d20 <num_timer_tasks>
    50200e0e:	4398                	lw	a4,0(a5)
    50200e10:	fec42783          	lw	a5,-20(s0)
    50200e14:	2781                	sext.w	a5,a5
    50200e16:	dae7cae3          	blt	a5,a4,50200bca <init_pcb+0x546>
    50200e1a:	fe043783          	ld	a5,-32(s0)
    50200e1e:	00006717          	auipc	a4,0x6
    50200e22:	06270713          	addi	a4,a4,98 # 50206e80 <ready_queue>
    50200e26:	e798                	sd	a4,8(a5)
    50200e28:	00006797          	auipc	a5,0x6
    50200e2c:	05878793          	addi	a5,a5,88 # 50206e80 <ready_queue>
    50200e30:	fe043703          	ld	a4,-32(s0)
    50200e34:	eb98                	sd	a4,16(a5)
    50200e36:	00006797          	auipc	a5,0x6
    50200e3a:	06278793          	addi	a5,a5,98 # 50206e98 <current_running>
    50200e3e:	00004717          	auipc	a4,0x4
    50200e42:	a3270713          	addi	a4,a4,-1486 # 50204870 <pid0_pcb>
    50200e46:	e398                	sd	a4,0(a5)
    50200e48:	0001                	nop
    50200e4a:	70a2                	ld	ra,40(sp)
    50200e4c:	7402                	ld	s0,32(sp)
    50200e4e:	6145                	addi	sp,sp,48
    50200e50:	8082                	ret

0000000050200e52 <print_syscall>:
    50200e52:	7179                	addi	sp,sp,-48
    50200e54:	f406                	sd	ra,40(sp)
    50200e56:	f022                	sd	s0,32(sp)
    50200e58:	1800                	addi	s0,sp,48
    50200e5a:	fea43423          	sd	a0,-24(s0)
    50200e5e:	feb43023          	sd	a1,-32(s0)
    50200e62:	fcc43c23          	sd	a2,-40(s0)
    50200e66:	fd843683          	ld	a3,-40(s0)
    50200e6a:	fe043603          	ld	a2,-32(s0)
    50200e6e:	fe843583          	ld	a1,-24(s0)
    50200e72:	00003517          	auipc	a0,0x3
    50200e76:	36650513          	addi	a0,a0,870 # 502041d8 <lock_task2+0x104>
    50200e7a:	126020ef          	jal	ra,50202fa0 <printk>
    50200e7e:	0001                	nop
    50200e80:	70a2                	ld	ra,40(sp)
    50200e82:	7402                	ld	s0,32(sp)
    50200e84:	6145                	addi	sp,sp,48
    50200e86:	8082                	ret

0000000050200e88 <init_syscall>:
    50200e88:	1141                	addi	sp,sp,-16
    50200e8a:	e422                	sd	s0,8(sp)
    50200e8c:	0800                	addi	s0,sp,16
    50200e8e:	00006797          	auipc	a5,0x6
    50200e92:	4aa78793          	addi	a5,a5,1194 # 50207338 <syscall>
    50200e96:	00000717          	auipc	a4,0x0
    50200e9a:	fbc70713          	addi	a4,a4,-68 # 50200e52 <print_syscall>
    50200e9e:	e398                	sd	a4,0(a5)
    50200ea0:	00006797          	auipc	a5,0x6
    50200ea4:	49878793          	addi	a5,a5,1176 # 50207338 <syscall>
    50200ea8:	00000717          	auipc	a4,0x0
    50200eac:	faa70713          	addi	a4,a4,-86 # 50200e52 <print_syscall>
    50200eb0:	e798                	sd	a4,8(a5)
    50200eb2:	00006797          	auipc	a5,0x6
    50200eb6:	48678793          	addi	a5,a5,1158 # 50207338 <syscall>
    50200eba:	00001717          	auipc	a4,0x1
    50200ebe:	f5670713          	addi	a4,a4,-170 # 50201e10 <do_sleep>
    50200ec2:	eb98                	sd	a4,16(a5)
    50200ec4:	00006797          	auipc	a5,0x6
    50200ec8:	47478793          	addi	a5,a5,1140 # 50207338 <syscall>
    50200ecc:	00001717          	auipc	a4,0x1
    50200ed0:	0c270713          	addi	a4,a4,194 # 50201f8e <do_fork>
    50200ed4:	ef98                	sd	a4,24(a5)
    50200ed6:	00006797          	auipc	a5,0x6
    50200eda:	46278793          	addi	a5,a5,1122 # 50207338 <syscall>
    50200ede:	00001717          	auipc	a4,0x1
    50200ee2:	50670713          	addi	a4,a4,1286 # 502023e4 <do_prior>
    50200ee6:	f398                	sd	a4,32(a5)
    50200ee8:	00006797          	auipc	a5,0x6
    50200eec:	45078793          	addi	a5,a5,1104 # 50207338 <syscall>
    50200ef0:	00000717          	auipc	a4,0x0
    50200ef4:	f6270713          	addi	a4,a4,-158 # 50200e52 <print_syscall>
    50200ef8:	f798                	sd	a4,40(a5)
    50200efa:	00006797          	auipc	a5,0x6
    50200efe:	43e78793          	addi	a5,a5,1086 # 50207338 <syscall>
    50200f02:	00000717          	auipc	a4,0x0
    50200f06:	f5070713          	addi	a4,a4,-176 # 50200e52 <print_syscall>
    50200f0a:	fb98                	sd	a4,48(a5)
    50200f0c:	00006797          	auipc	a5,0x6
    50200f10:	42c78793          	addi	a5,a5,1068 # 50207338 <syscall>
    50200f14:	00001717          	auipc	a4,0x1
    50200f18:	cf670713          	addi	a4,a4,-778 # 50201c0a <do_scheduler>
    50200f1c:	ff98                	sd	a4,56(a5)
    50200f1e:	00006797          	auipc	a5,0x6
    50200f22:	41a78793          	addi	a5,a5,1050 # 50207338 <syscall>
    50200f26:	00000717          	auipc	a4,0x0
    50200f2a:	f2c70713          	addi	a4,a4,-212 # 50200e52 <print_syscall>
    50200f2e:	e3b8                	sd	a4,64(a5)
    50200f30:	00006797          	auipc	a5,0x6
    50200f34:	40878793          	addi	a5,a5,1032 # 50207338 <syscall>
    50200f38:	00000717          	auipc	a4,0x0
    50200f3c:	f1a70713          	addi	a4,a4,-230 # 50200e52 <print_syscall>
    50200f40:	e7b8                	sd	a4,72(a5)
    50200f42:	00006797          	auipc	a5,0x6
    50200f46:	3f678793          	addi	a5,a5,1014 # 50207338 <syscall>
    50200f4a:	00001717          	auipc	a4,0x1
    50200f4e:	91270713          	addi	a4,a4,-1774 # 5020185c <screen_write>
    50200f52:	f3d8                	sd	a4,160(a5)
    50200f54:	00006797          	auipc	a5,0x6
    50200f58:	3e478793          	addi	a5,a5,996 # 50207338 <syscall>
    50200f5c:	00000717          	auipc	a4,0x0
    50200f60:	ef670713          	addi	a4,a4,-266 # 50200e52 <print_syscall>
    50200f64:	f7d8                	sd	a4,168(a5)
    50200f66:	00006797          	auipc	a5,0x6
    50200f6a:	3d278793          	addi	a5,a5,978 # 50207338 <syscall>
    50200f6e:	00001717          	auipc	a4,0x1
    50200f72:	88a70713          	addi	a4,a4,-1910 # 502017f8 <screen_move_cursor>
    50200f76:	fbd8                	sd	a4,176(a5)
    50200f78:	00006797          	auipc	a5,0x6
    50200f7c:	3c078793          	addi	a5,a5,960 # 50207338 <syscall>
    50200f80:	00001717          	auipc	a4,0x1
    50200f84:	93a70713          	addi	a4,a4,-1734 # 502018ba <screen_reflush>
    50200f88:	ffd8                	sd	a4,184(a5)
    50200f8a:	00006797          	auipc	a5,0x6
    50200f8e:	3ae78793          	addi	a5,a5,942 # 50207338 <syscall>
    50200f92:	00001717          	auipc	a4,0x1
    50200f96:	a9070713          	addi	a4,a4,-1392 # 50201a22 <getch>
    50200f9a:	e3f8                	sd	a4,192(a5)
    50200f9c:	00006797          	auipc	a5,0x6
    50200fa0:	39c78793          	addi	a5,a5,924 # 50207338 <syscall>
    50200fa4:	00001717          	auipc	a4,0x1
    50200fa8:	4ca70713          	addi	a4,a4,1226 # 5020246e <get_time_base>
    50200fac:	fbf8                	sd	a4,240(a5)
    50200fae:	00006797          	auipc	a5,0x6
    50200fb2:	38a78793          	addi	a5,a5,906 # 50207338 <syscall>
    50200fb6:	00001717          	auipc	a4,0x1
    50200fba:	47470713          	addi	a4,a4,1140 # 5020242a <get_ticks>
    50200fbe:	fff8                	sd	a4,248(a5)
    50200fc0:	00006797          	auipc	a5,0x6
    50200fc4:	37878793          	addi	a5,a5,888 # 50207338 <syscall>
    50200fc8:	00001717          	auipc	a4,0x1
    50200fcc:	4f470713          	addi	a4,a4,1268 # 502024bc <get_walltime>
    50200fd0:	10e7b023          	sd	a4,256(a5)
    50200fd4:	00006797          	auipc	a5,0x6
    50200fd8:	36478793          	addi	a5,a5,868 # 50207338 <syscall>
    50200fdc:	00001717          	auipc	a4,0x1
    50200fe0:	b8670713          	addi	a4,a4,-1146 # 50201b62 <get_mutex>
    50200fe4:	10e7b423          	sd	a4,264(a5)
    50200fe8:	00006797          	auipc	a5,0x6
    50200fec:	35078793          	addi	a5,a5,848 # 50207338 <syscall>
    50200ff0:	00001717          	auipc	a4,0x1
    50200ff4:	bb670713          	addi	a4,a4,-1098 # 50201ba6 <lock_mutex>
    50200ff8:	10e7b823          	sd	a4,272(a5)
    50200ffc:	00006797          	auipc	a5,0x6
    50201000:	33c78793          	addi	a5,a5,828 # 50207338 <syscall>
    50201004:	00001717          	auipc	a4,0x1
    50201008:	bd470713          	addi	a4,a4,-1068 # 50201bd8 <unlock_mutex>
    5020100c:	10e7bc23          	sd	a4,280(a5)
    50201010:	0001                	nop
    50201012:	6422                	ld	s0,8(sp)
    50201014:	0141                	addi	sp,sp,16
    50201016:	8082                	ret

0000000050201018 <main>:
    50201018:	1141                	addi	sp,sp,-16
    5020101a:	e406                	sd	ra,8(sp)
    5020101c:	e022                	sd	s0,0(sp)
    5020101e:	0800                	addi	s0,sp,16
    50201020:	e64ff0ef          	jal	ra,50200684 <init_pcb>
    50201024:	4501                	li	a0,0
    50201026:	b84ff0ef          	jal	ra,502003aa <sbi_read_fdt>
    5020102a:	87aa                	mv	a5,a0
    5020102c:	0007871b          	sext.w	a4,a5
    50201030:	85818793          	addi	a5,gp,-1960 # 50204d40 <time_base>
    50201034:	c398                	sw	a4,0(a5)
    50201036:	1c8000ef          	jal	ra,502011fe <init_exception>
    5020103a:	00003517          	auipc	a0,0x3
    5020103e:	1ce50513          	addi	a0,a0,462 # 50204208 <lock_task2+0x134>
    50201042:	75f010ef          	jal	ra,50202fa0 <printk>
    50201046:	e43ff0ef          	jal	ra,50200e88 <init_syscall>
    5020104a:	00003517          	auipc	a0,0x3
    5020104e:	1fe50513          	addi	a0,a0,510 # 50204248 <lock_task2+0x174>
    50201052:	74f010ef          	jal	ra,50202fa0 <printk>
    50201056:	6c6000ef          	jal	ra,5020171c <init_screen>
    5020105a:	00003517          	auipc	a0,0x3
    5020105e:	22650513          	addi	a0,a0,550 # 50204280 <lock_task2+0x1ac>
    50201062:	73f010ef          	jal	ra,50202fa0 <printk>
    50201066:	00006797          	auipc	a5,0x6
    5020106a:	e3a78793          	addi	a5,a5,-454 # 50206ea0 <sleep_queue>
    5020106e:	0007a023          	sw	zero,0(a5)
    50201072:	00006797          	auipc	a5,0x6
    50201076:	e2e78793          	addi	a5,a5,-466 # 50206ea0 <sleep_queue>
    5020107a:	0007b823          	sd	zero,16(a5)
    5020107e:	00006797          	auipc	a5,0x6
    50201082:	e2278793          	addi	a5,a5,-478 # 50206ea0 <sleep_queue>
    50201086:	0007b423          	sd	zero,8(a5)
    5020108a:	00080537          	lui	a0,0x80
    5020108e:	afcff0ef          	jal	ra,5020038a <sbi_set_timer>
    50201092:	832ff0ef          	jal	ra,502000c4 <disable_interrupt>
    50201096:	375000ef          	jal	ra,50201c0a <do_scheduler>
    5020109a:	bfe5                	j	50201092 <main+0x7a>

000000005020109c <_panic>:
    5020109c:	7179                	addi	sp,sp,-48
    5020109e:	f406                	sd	ra,40(sp)
    502010a0:	f022                	sd	s0,32(sp)
    502010a2:	1800                	addi	s0,sp,48
    502010a4:	fea43423          	sd	a0,-24(s0)
    502010a8:	87ae                	mv	a5,a1
    502010aa:	fcc43c23          	sd	a2,-40(s0)
    502010ae:	fef42223          	sw	a5,-28(s0)
    502010b2:	fe442783          	lw	a5,-28(s0)
    502010b6:	86be                	mv	a3,a5
    502010b8:	fe843603          	ld	a2,-24(s0)
    502010bc:	fd843583          	ld	a1,-40(s0)
    502010c0:	00003517          	auipc	a0,0x3
    502010c4:	2f050513          	addi	a0,a0,752 # 502043b0 <lock_task2+0x2dc>
    502010c8:	6d9010ef          	jal	ra,50202fa0 <printk>
    502010cc:	a001                	j	502010cc <_panic+0x30>

00000000502010ce <sbi_set_timer>:
    502010ce:	1101                	addi	sp,sp,-32
    502010d0:	ec22                	sd	s0,24(sp)
    502010d2:	1000                	addi	s0,sp,32
    502010d4:	fea43423          	sd	a0,-24(s0)
    502010d8:	fe843503          	ld	a0,-24(s0)
    502010dc:	4581                	li	a1,0
    502010de:	4601                	li	a2,0
    502010e0:	4881                	li	a7,0
    502010e2:	00000073          	ecall
    502010e6:	0001                	nop
    502010e8:	6462                	ld	s0,24(sp)
    502010ea:	6105                	addi	sp,sp,32
    502010ec:	8082                	ret

00000000502010ee <assert_supervisor_mode>:
    502010ee:	1141                	addi	sp,sp,-16
    502010f0:	e422                	sd	s0,8(sp)
    502010f2:	0800                	addi	s0,sp,16
    502010f4:	14002073          	csrr	zero,sscratch
    502010f8:	0001                	nop
    502010fa:	6422                	ld	s0,8(sp)
    502010fc:	0141                	addi	sp,sp,16
    502010fe:	8082                	ret

0000000050201100 <reset_irq_timer>:
    50201100:	1101                	addi	sp,sp,-32
    50201102:	ec06                	sd	ra,24(sp)
    50201104:	e822                	sd	s0,16(sp)
    50201106:	1000                	addi	s0,sp,32
    50201108:	7b2000ef          	jal	ra,502018ba <screen_reflush>
    5020110c:	00004797          	auipc	a5,0x4
    50201110:	be478793          	addi	a5,a5,-1052 # 50204cf0 <timer>
    50201114:	6398                	ld	a4,0(a5)
    50201116:	000257b7          	lui	a5,0x25
    5020111a:	9f078793          	addi	a5,a5,-1552 # 249f0 <_start-0x501db610>
    5020111e:	973e                	add	a4,a4,a5
    50201120:	00004797          	auipc	a5,0x4
    50201124:	bd078793          	addi	a5,a5,-1072 # 50204cf0 <timer>
    50201128:	e398                	sd	a4,0(a5)
    5020112a:	00004797          	auipc	a5,0x4
    5020112e:	bc678793          	addi	a5,a5,-1082 # 50204cf0 <timer>
    50201132:	639c                	ld	a5,0(a5)
    50201134:	853e                	mv	a0,a5
    50201136:	f99ff0ef          	jal	ra,502010ce <sbi_set_timer>
    5020113a:	2f0010ef          	jal	ra,5020242a <get_ticks>
    5020113e:	fea43423          	sd	a0,-24(s0)
    50201142:	00006797          	auipc	a5,0x6
    50201146:	d5678793          	addi	a5,a5,-682 # 50206e98 <current_running>
    5020114a:	639c                	ld	a5,0(a5)
    5020114c:	7b9c                	ld	a5,48(a5)
    5020114e:	fe843703          	ld	a4,-24(s0)
    50201152:	00e7f463          	bgeu	a5,a4,5020115a <reset_irq_timer+0x5a>
    50201156:	2b5000ef          	jal	ra,50201c0a <do_scheduler>
    5020115a:	0001                	nop
    5020115c:	60e2                	ld	ra,24(sp)
    5020115e:	6442                	ld	s0,16(sp)
    50201160:	6105                	addi	sp,sp,32
    50201162:	8082                	ret

0000000050201164 <interrupt_helper>:
    50201164:	7179                	addi	sp,sp,-48
    50201166:	f406                	sd	ra,40(sp)
    50201168:	f022                	sd	s0,32(sp)
    5020116a:	1800                	addi	s0,sp,48
    5020116c:	fea43423          	sd	a0,-24(s0)
    50201170:	feb43023          	sd	a1,-32(s0)
    50201174:	fcc43c23          	sd	a2,-40(s0)
    50201178:	f77ff0ef          	jal	ra,502010ee <assert_supervisor_mode>
    5020117c:	fd843783          	ld	a5,-40(s0)
    50201180:	0207d663          	bgez	a5,502011ac <interrupt_helper+0x48>
    50201184:	fd843703          	ld	a4,-40(s0)
    50201188:	57fd                	li	a5,-1
    5020118a:	8385                	srli	a5,a5,0x1
    5020118c:	8ff9                	and	a5,a5,a4
    5020118e:	00006717          	auipc	a4,0x6
    50201192:	b8a70713          	addi	a4,a4,-1142 # 50206d18 <irq_table>
    50201196:	078e                	slli	a5,a5,0x3
    50201198:	97ba                	add	a5,a5,a4
    5020119a:	639c                	ld	a5,0(a5)
    5020119c:	fd843603          	ld	a2,-40(s0)
    502011a0:	fe043583          	ld	a1,-32(s0)
    502011a4:	fe843503          	ld	a0,-24(s0)
    502011a8:	9782                	jalr	a5
    502011aa:	a025                	j	502011d2 <interrupt_helper+0x6e>
    502011ac:	fd843703          	ld	a4,-40(s0)
    502011b0:	57fd                	li	a5,-1
    502011b2:	8385                	srli	a5,a5,0x1
    502011b4:	8ff9                	and	a5,a5,a4
    502011b6:	00006717          	auipc	a4,0x6
    502011ba:	ada70713          	addi	a4,a4,-1318 # 50206c90 <exc_table>
    502011be:	078e                	slli	a5,a5,0x3
    502011c0:	97ba                	add	a5,a5,a4
    502011c2:	639c                	ld	a5,0(a5)
    502011c4:	fd843603          	ld	a2,-40(s0)
    502011c8:	fe043583          	ld	a1,-32(s0)
    502011cc:	fe843503          	ld	a0,-24(s0)
    502011d0:	9782                	jalr	a5
    502011d2:	0001                	nop
    502011d4:	70a2                	ld	ra,40(sp)
    502011d6:	7402                	ld	s0,32(sp)
    502011d8:	6145                	addi	sp,sp,48
    502011da:	8082                	ret

00000000502011dc <handle_int>:
    502011dc:	7179                	addi	sp,sp,-48
    502011de:	f406                	sd	ra,40(sp)
    502011e0:	f022                	sd	s0,32(sp)
    502011e2:	1800                	addi	s0,sp,48
    502011e4:	fea43423          	sd	a0,-24(s0)
    502011e8:	feb43023          	sd	a1,-32(s0)
    502011ec:	fcc43c23          	sd	a2,-40(s0)
    502011f0:	f11ff0ef          	jal	ra,50201100 <reset_irq_timer>
    502011f4:	0001                	nop
    502011f6:	70a2                	ld	ra,40(sp)
    502011f8:	7402                	ld	s0,32(sp)
    502011fa:	6145                	addi	sp,sp,48
    502011fc:	8082                	ret

00000000502011fe <init_exception>:
    502011fe:	1141                	addi	sp,sp,-16
    50201200:	e406                	sd	ra,8(sp)
    50201202:	e022                	sd	s0,0(sp)
    50201204:	0800                	addi	s0,sp,16
    50201206:	00006797          	auipc	a5,0x6
    5020120a:	b1278793          	addi	a5,a5,-1262 # 50206d18 <irq_table>
    5020120e:	00000717          	auipc	a4,0x0
    50201212:	1b670713          	addi	a4,a4,438 # 502013c4 <handle_other>
    50201216:	e398                	sd	a4,0(a5)
    50201218:	00006797          	auipc	a5,0x6
    5020121c:	b0078793          	addi	a5,a5,-1280 # 50206d18 <irq_table>
    50201220:	00000717          	auipc	a4,0x0
    50201224:	1a470713          	addi	a4,a4,420 # 502013c4 <handle_other>
    50201228:	e798                	sd	a4,8(a5)
    5020122a:	00006797          	auipc	a5,0x6
    5020122e:	aee78793          	addi	a5,a5,-1298 # 50206d18 <irq_table>
    50201232:	00000717          	auipc	a4,0x0
    50201236:	19270713          	addi	a4,a4,402 # 502013c4 <handle_other>
    5020123a:	eb98                	sd	a4,16(a5)
    5020123c:	00006797          	auipc	a5,0x6
    50201240:	adc78793          	addi	a5,a5,-1316 # 50206d18 <irq_table>
    50201244:	00000717          	auipc	a4,0x0
    50201248:	18070713          	addi	a4,a4,384 # 502013c4 <handle_other>
    5020124c:	ef98                	sd	a4,24(a5)
    5020124e:	00006797          	auipc	a5,0x6
    50201252:	aca78793          	addi	a5,a5,-1334 # 50206d18 <irq_table>
    50201256:	00000717          	auipc	a4,0x0
    5020125a:	16e70713          	addi	a4,a4,366 # 502013c4 <handle_other>
    5020125e:	f398                	sd	a4,32(a5)
    50201260:	00006797          	auipc	a5,0x6
    50201264:	ab878793          	addi	a5,a5,-1352 # 50206d18 <irq_table>
    50201268:	00000717          	auipc	a4,0x0
    5020126c:	f7470713          	addi	a4,a4,-140 # 502011dc <handle_int>
    50201270:	f798                	sd	a4,40(a5)
    50201272:	00006797          	auipc	a5,0x6
    50201276:	aa678793          	addi	a5,a5,-1370 # 50206d18 <irq_table>
    5020127a:	00000717          	auipc	a4,0x0
    5020127e:	14a70713          	addi	a4,a4,330 # 502013c4 <handle_other>
    50201282:	fb98                	sd	a4,48(a5)
    50201284:	00006797          	auipc	a5,0x6
    50201288:	a9478793          	addi	a5,a5,-1388 # 50206d18 <irq_table>
    5020128c:	00000717          	auipc	a4,0x0
    50201290:	13870713          	addi	a4,a4,312 # 502013c4 <handle_other>
    50201294:	ff98                	sd	a4,56(a5)
    50201296:	00006797          	auipc	a5,0x6
    5020129a:	a8278793          	addi	a5,a5,-1406 # 50206d18 <irq_table>
    5020129e:	00000717          	auipc	a4,0x0
    502012a2:	12670713          	addi	a4,a4,294 # 502013c4 <handle_other>
    502012a6:	e3b8                	sd	a4,64(a5)
    502012a8:	00006797          	auipc	a5,0x6
    502012ac:	a7078793          	addi	a5,a5,-1424 # 50206d18 <irq_table>
    502012b0:	00000717          	auipc	a4,0x0
    502012b4:	11470713          	addi	a4,a4,276 # 502013c4 <handle_other>
    502012b8:	e7b8                	sd	a4,72(a5)
    502012ba:	00006797          	auipc	a5,0x6
    502012be:	a5e78793          	addi	a5,a5,-1442 # 50206d18 <irq_table>
    502012c2:	00000717          	auipc	a4,0x0
    502012c6:	10270713          	addi	a4,a4,258 # 502013c4 <handle_other>
    502012ca:	ebb8                	sd	a4,80(a5)
    502012cc:	00006797          	auipc	a5,0x6
    502012d0:	a4c78793          	addi	a5,a5,-1460 # 50206d18 <irq_table>
    502012d4:	00000717          	auipc	a4,0x0
    502012d8:	0f070713          	addi	a4,a4,240 # 502013c4 <handle_other>
    502012dc:	efb8                	sd	a4,88(a5)
    502012de:	00006797          	auipc	a5,0x6
    502012e2:	9b278793          	addi	a5,a5,-1614 # 50206c90 <exc_table>
    502012e6:	00000717          	auipc	a4,0x0
    502012ea:	0de70713          	addi	a4,a4,222 # 502013c4 <handle_other>
    502012ee:	e398                	sd	a4,0(a5)
    502012f0:	00006797          	auipc	a5,0x6
    502012f4:	9a078793          	addi	a5,a5,-1632 # 50206c90 <exc_table>
    502012f8:	00000717          	auipc	a4,0x0
    502012fc:	0cc70713          	addi	a4,a4,204 # 502013c4 <handle_other>
    50201300:	e798                	sd	a4,8(a5)
    50201302:	00006797          	auipc	a5,0x6
    50201306:	98e78793          	addi	a5,a5,-1650 # 50206c90 <exc_table>
    5020130a:	00000717          	auipc	a4,0x0
    5020130e:	0ba70713          	addi	a4,a4,186 # 502013c4 <handle_other>
    50201312:	eb98                	sd	a4,16(a5)
    50201314:	00006797          	auipc	a5,0x6
    50201318:	97c78793          	addi	a5,a5,-1668 # 50206c90 <exc_table>
    5020131c:	00000717          	auipc	a4,0x0
    50201320:	0a870713          	addi	a4,a4,168 # 502013c4 <handle_other>
    50201324:	ef98                	sd	a4,24(a5)
    50201326:	00006797          	auipc	a5,0x6
    5020132a:	96a78793          	addi	a5,a5,-1686 # 50206c90 <exc_table>
    5020132e:	00000717          	auipc	a4,0x0
    50201332:	09670713          	addi	a4,a4,150 # 502013c4 <handle_other>
    50201336:	f398                	sd	a4,32(a5)
    50201338:	00006797          	auipc	a5,0x6
    5020133c:	95878793          	addi	a5,a5,-1704 # 50206c90 <exc_table>
    50201340:	00000717          	auipc	a4,0x0
    50201344:	08470713          	addi	a4,a4,132 # 502013c4 <handle_other>
    50201348:	f798                	sd	a4,40(a5)
    5020134a:	00006797          	auipc	a5,0x6
    5020134e:	94678793          	addi	a5,a5,-1722 # 50206c90 <exc_table>
    50201352:	00000717          	auipc	a4,0x0
    50201356:	07270713          	addi	a4,a4,114 # 502013c4 <handle_other>
    5020135a:	ff98                	sd	a4,56(a5)
    5020135c:	00006797          	auipc	a5,0x6
    50201360:	93478793          	addi	a5,a5,-1740 # 50206c90 <exc_table>
    50201364:	00001717          	auipc	a4,0x1
    50201368:	1fc70713          	addi	a4,a4,508 # 50202560 <handle_syscall>
    5020136c:	e3b8                	sd	a4,64(a5)
    5020136e:	00006797          	auipc	a5,0x6
    50201372:	92278793          	addi	a5,a5,-1758 # 50206c90 <exc_table>
    50201376:	00000717          	auipc	a4,0x0
    5020137a:	04e70713          	addi	a4,a4,78 # 502013c4 <handle_other>
    5020137e:	f3b8                	sd	a4,96(a5)
    50201380:	00006797          	auipc	a5,0x6
    50201384:	91078793          	addi	a5,a5,-1776 # 50206c90 <exc_table>
    50201388:	00000717          	auipc	a4,0x0
    5020138c:	03c70713          	addi	a4,a4,60 # 502013c4 <handle_other>
    50201390:	f7b8                	sd	a4,104(a5)
    50201392:	00006797          	auipc	a5,0x6
    50201396:	8fe78793          	addi	a5,a5,-1794 # 50206c90 <exc_table>
    5020139a:	00000717          	auipc	a4,0x0
    5020139e:	02a70713          	addi	a4,a4,42 # 502013c4 <handle_other>
    502013a2:	fbb8                	sd	a4,112(a5)
    502013a4:	00006797          	auipc	a5,0x6
    502013a8:	8ec78793          	addi	a5,a5,-1812 # 50206c90 <exc_table>
    502013ac:	00000717          	auipc	a4,0x0
    502013b0:	01870713          	addi	a4,a4,24 # 502013c4 <handle_other>
    502013b4:	ffb8                	sd	a4,120(a5)
    502013b6:	ca7fe0ef          	jal	ra,5020005c <setup_exception>
    502013ba:	0001                	nop
    502013bc:	60a2                	ld	ra,8(sp)
    502013be:	6402                	ld	s0,0(sp)
    502013c0:	0141                	addi	sp,sp,16
    502013c2:	8082                	ret

00000000502013c4 <handle_other>:
    502013c4:	7129                	addi	sp,sp,-320
    502013c6:	fe06                	sd	ra,312(sp)
    502013c8:	fa22                	sd	s0,304(sp)
    502013ca:	0280                	addi	s0,sp,320
    502013cc:	eca43c23          	sd	a0,-296(s0)
    502013d0:	ecb43823          	sd	a1,-304(s0)
    502013d4:	ecc43423          	sd	a2,-312(s0)
    502013d8:	00003717          	auipc	a4,0x3
    502013dc:	07070713          	addi	a4,a4,112 # 50204448 <lock_task2+0x374>
    502013e0:	ee840793          	addi	a5,s0,-280
    502013e4:	86ba                	mv	a3,a4
    502013e6:	10000713          	li	a4,256
    502013ea:	863a                	mv	a2,a4
    502013ec:	85b6                	mv	a1,a3
    502013ee:	853e                	mv	a0,a5
    502013f0:	346020ef          	jal	ra,50203736 <memcpy>
    502013f4:	fe042623          	sw	zero,-20(s0)
    502013f8:	a061                	j	50201480 <handle_other+0xbc>
    502013fa:	fe042423          	sw	zero,-24(s0)
    502013fe:	a0a9                	j	50201448 <handle_other+0x84>
    50201400:	fec42703          	lw	a4,-20(s0)
    50201404:	fe842783          	lw	a5,-24(s0)
    50201408:	9fb9                	addw	a5,a5,a4
    5020140a:	2781                	sext.w	a5,a5
    5020140c:	078e                	slli	a5,a5,0x3
    5020140e:	ff040713          	addi	a4,s0,-16
    50201412:	97ba                	add	a5,a5,a4
    50201414:	ef87b683          	ld	a3,-264(a5)
    50201418:	fec42703          	lw	a4,-20(s0)
    5020141c:	fe842783          	lw	a5,-24(s0)
    50201420:	9fb9                	addw	a5,a5,a4
    50201422:	2781                	sext.w	a5,a5
    50201424:	ed843703          	ld	a4,-296(s0)
    50201428:	078e                	slli	a5,a5,0x3
    5020142a:	97ba                	add	a5,a5,a4
    5020142c:	639c                	ld	a5,0(a5)
    5020142e:	863e                	mv	a2,a5
    50201430:	85b6                	mv	a1,a3
    50201432:	00003517          	auipc	a0,0x3
    50201436:	fa650513          	addi	a0,a0,-90 # 502043d8 <lock_task2+0x304>
    5020143a:	367010ef          	jal	ra,50202fa0 <printk>
    5020143e:	fe842783          	lw	a5,-24(s0)
    50201442:	2785                	addiw	a5,a5,1
    50201444:	fef42423          	sw	a5,-24(s0)
    50201448:	fe842783          	lw	a5,-24(s0)
    5020144c:	0007871b          	sext.w	a4,a5
    50201450:	4789                	li	a5,2
    50201452:	00e7cc63          	blt	a5,a4,5020146a <handle_other+0xa6>
    50201456:	fec42703          	lw	a4,-20(s0)
    5020145a:	fe842783          	lw	a5,-24(s0)
    5020145e:	9fb9                	addw	a5,a5,a4
    50201460:	2781                	sext.w	a5,a5
    50201462:	873e                	mv	a4,a5
    50201464:	47fd                	li	a5,31
    50201466:	f8e7dde3          	bge	a5,a4,50201400 <handle_other+0x3c>
    5020146a:	00003517          	auipc	a0,0x3
    5020146e:	f7e50513          	addi	a0,a0,-130 # 502043e8 <lock_task2+0x314>
    50201472:	32f010ef          	jal	ra,50202fa0 <printk>
    50201476:	fec42783          	lw	a5,-20(s0)
    5020147a:	278d                	addiw	a5,a5,3
    5020147c:	fef42623          	sw	a5,-20(s0)
    50201480:	fec42783          	lw	a5,-20(s0)
    50201484:	0007871b          	sext.w	a4,a5
    50201488:	47fd                	li	a5,31
    5020148a:	f6e7d8e3          	bge	a5,a4,502013fa <handle_other+0x36>
    5020148e:	ed843783          	ld	a5,-296(s0)
    50201492:	1007b703          	ld	a4,256(a5)
    50201496:	ed843783          	ld	a5,-296(s0)
    5020149a:	1107b603          	ld	a2,272(a5)
    5020149e:	ed843783          	ld	a5,-296(s0)
    502014a2:	1187b783          	ld	a5,280(a5)
    502014a6:	86be                	mv	a3,a5
    502014a8:	85ba                	mv	a1,a4
    502014aa:	00003517          	auipc	a0,0x3
    502014ae:	f4650513          	addi	a0,a0,-186 # 502043f0 <lock_task2+0x31c>
    502014b2:	2ef010ef          	jal	ra,50202fa0 <printk>
    502014b6:	ed843783          	ld	a5,-296(s0)
    502014ba:	1087b783          	ld	a5,264(a5)
    502014be:	85be                	mv	a1,a5
    502014c0:	00003517          	auipc	a0,0x3
    502014c4:	f6050513          	addi	a0,a0,-160 # 50204420 <lock_task2+0x34c>
    502014c8:	2d9010ef          	jal	ra,50202fa0 <printk>
    502014cc:	00003617          	auipc	a2,0x3
    502014d0:	07c60613          	addi	a2,a2,124 # 50204548 <__FUNCTION__.1341>
    502014d4:	08200593          	li	a1,130
    502014d8:	00003517          	auipc	a0,0x3
    502014dc:	f5850513          	addi	a0,a0,-168 # 50204430 <lock_task2+0x35c>
    502014e0:	bbdff0ef          	jal	ra,5020109c <_panic>
    502014e4:	0001                	nop
    502014e6:	70f2                	ld	ra,312(sp)
    502014e8:	7452                	ld	s0,304(sp)
    502014ea:	6131                	addi	sp,sp,320
    502014ec:	8082                	ret

00000000502014ee <vt100_move_cursor>:
    502014ee:	1101                	addi	sp,sp,-32
    502014f0:	ec06                	sd	ra,24(sp)
    502014f2:	e822                	sd	s0,16(sp)
    502014f4:	1000                	addi	s0,sp,32
    502014f6:	87aa                	mv	a5,a0
    502014f8:	872e                	mv	a4,a1
    502014fa:	fef42623          	sw	a5,-20(s0)
    502014fe:	87ba                	mv	a5,a4
    50201500:	fef42423          	sw	a5,-24(s0)
    50201504:	ba1fe0ef          	jal	ra,502000a4 <disable_preempt>
    50201508:	fec42703          	lw	a4,-20(s0)
    5020150c:	fe842783          	lw	a5,-24(s0)
    50201510:	86ba                	mv	a3,a4
    50201512:	863e                	mv	a2,a5
    50201514:	45ed                	li	a1,27
    50201516:	00003517          	auipc	a0,0x3
    5020151a:	04250513          	addi	a0,a0,66 # 50204558 <__FUNCTION__.1341+0x10>
    5020151e:	283010ef          	jal	ra,50202fa0 <printk>
    50201522:	00006797          	auipc	a5,0x6
    50201526:	97678793          	addi	a5,a5,-1674 # 50206e98 <current_running>
    5020152a:	639c                	ld	a5,0(a5)
    5020152c:	fec42703          	lw	a4,-20(s0)
    50201530:	c3b8                	sw	a4,64(a5)
    50201532:	00006797          	auipc	a5,0x6
    50201536:	96678793          	addi	a5,a5,-1690 # 50206e98 <current_running>
    5020153a:	639c                	ld	a5,0(a5)
    5020153c:	fe842703          	lw	a4,-24(s0)
    50201540:	c3f8                	sw	a4,68(a5)
    50201542:	b3bfe0ef          	jal	ra,5020007c <enable_preempt>
    50201546:	0001                	nop
    50201548:	60e2                	ld	ra,24(sp)
    5020154a:	6442                	ld	s0,16(sp)
    5020154c:	6105                	addi	sp,sp,32
    5020154e:	8082                	ret

0000000050201550 <vt100_clear>:
    50201550:	1141                	addi	sp,sp,-16
    50201552:	e406                	sd	ra,8(sp)
    50201554:	e022                	sd	s0,0(sp)
    50201556:	0800                	addi	s0,sp,16
    50201558:	45ed                	li	a1,27
    5020155a:	00003517          	auipc	a0,0x3
    5020155e:	00e50513          	addi	a0,a0,14 # 50204568 <__FUNCTION__.1341+0x20>
    50201562:	23f010ef          	jal	ra,50202fa0 <printk>
    50201566:	0001                	nop
    50201568:	60a2                	ld	ra,8(sp)
    5020156a:	6402                	ld	s0,0(sp)
    5020156c:	0141                	addi	sp,sp,16
    5020156e:	8082                	ret

0000000050201570 <vt100_hidden_cursor>:
    50201570:	1141                	addi	sp,sp,-16
    50201572:	e406                	sd	ra,8(sp)
    50201574:	e022                	sd	s0,0(sp)
    50201576:	0800                	addi	s0,sp,16
    50201578:	45ed                	li	a1,27
    5020157a:	00003517          	auipc	a0,0x3
    5020157e:	ff650513          	addi	a0,a0,-10 # 50204570 <__FUNCTION__.1341+0x28>
    50201582:	21f010ef          	jal	ra,50202fa0 <printk>
    50201586:	0001                	nop
    50201588:	60a2                	ld	ra,8(sp)
    5020158a:	6402                	ld	s0,0(sp)
    5020158c:	0141                	addi	sp,sp,16
    5020158e:	8082                	ret

0000000050201590 <screen_write_ch>:
    50201590:	1101                	addi	sp,sp,-32
    50201592:	ec22                	sd	s0,24(sp)
    50201594:	1000                	addi	s0,sp,32
    50201596:	87aa                	mv	a5,a0
    50201598:	fef407a3          	sb	a5,-17(s0)
    5020159c:	fef44783          	lbu	a5,-17(s0)
    502015a0:	0ff7f713          	andi	a4,a5,255
    502015a4:	47a9                	li	a5,10
    502015a6:	00f70963          	beq	a4,a5,502015b8 <screen_write_ch+0x28>
    502015aa:	fef44783          	lbu	a5,-17(s0)
    502015ae:	0ff7f713          	andi	a4,a5,255
    502015b2:	47b5                	li	a5,13
    502015b4:	02f71663          	bne	a4,a5,502015e0 <screen_write_ch+0x50>
    502015b8:	00005797          	auipc	a5,0x5
    502015bc:	7c078793          	addi	a5,a5,1984 # 50206d78 <screen_cursor_x>
    502015c0:	0007a023          	sw	zero,0(a5)
    502015c4:	00005797          	auipc	a5,0x5
    502015c8:	7b878793          	addi	a5,a5,1976 # 50206d7c <screen_cursor_y>
    502015cc:	439c                	lw	a5,0(a5)
    502015ce:	2785                	addiw	a5,a5,1
    502015d0:	0007871b          	sext.w	a4,a5
    502015d4:	00005797          	auipc	a5,0x5
    502015d8:	7a878793          	addi	a5,a5,1960 # 50206d7c <screen_cursor_y>
    502015dc:	c398                	sw	a4,0(a5)
    502015de:	a8a1                	j	50201636 <screen_write_ch+0xa6>
    502015e0:	00005797          	auipc	a5,0x5
    502015e4:	79c78793          	addi	a5,a5,1948 # 50206d7c <screen_cursor_y>
    502015e8:	439c                	lw	a5,0(a5)
    502015ea:	873e                	mv	a4,a5
    502015ec:	87ba                	mv	a5,a4
    502015ee:	0027979b          	slliw	a5,a5,0x2
    502015f2:	9fb9                	addw	a5,a5,a4
    502015f4:	0047979b          	slliw	a5,a5,0x4
    502015f8:	0007871b          	sext.w	a4,a5
    502015fc:	00005797          	auipc	a5,0x5
    50201600:	77c78793          	addi	a5,a5,1916 # 50206d78 <screen_cursor_x>
    50201604:	439c                	lw	a5,0(a5)
    50201606:	9fb9                	addw	a5,a5,a4
    50201608:	2781                	sext.w	a5,a5
    5020160a:	00003717          	auipc	a4,0x3
    5020160e:	73e70713          	addi	a4,a4,1854 # 50204d48 <new_screen>
    50201612:	97ba                	add	a5,a5,a4
    50201614:	fef44703          	lbu	a4,-17(s0)
    50201618:	00e78023          	sb	a4,0(a5)
    5020161c:	00005797          	auipc	a5,0x5
    50201620:	75c78793          	addi	a5,a5,1884 # 50206d78 <screen_cursor_x>
    50201624:	439c                	lw	a5,0(a5)
    50201626:	2785                	addiw	a5,a5,1
    50201628:	0007871b          	sext.w	a4,a5
    5020162c:	00005797          	auipc	a5,0x5
    50201630:	74c78793          	addi	a5,a5,1868 # 50206d78 <screen_cursor_x>
    50201634:	c398                	sw	a4,0(a5)
    50201636:	00005797          	auipc	a5,0x5
    5020163a:	74278793          	addi	a5,a5,1858 # 50206d78 <screen_cursor_x>
    5020163e:	439c                	lw	a5,0(a5)
    50201640:	0007de63          	bgez	a5,5020165c <screen_write_ch+0xcc>
    50201644:	00005797          	auipc	a5,0x5
    50201648:	73478793          	addi	a5,a5,1844 # 50206d78 <screen_cursor_x>
    5020164c:	0007a023          	sw	zero,0(a5)
    50201650:	00005797          	auipc	a5,0x5
    50201654:	72c78793          	addi	a5,a5,1836 # 50206d7c <screen_cursor_y>
    50201658:	0007a023          	sw	zero,0(a5)
    5020165c:	00005797          	auipc	a5,0x5
    50201660:	71c78793          	addi	a5,a5,1820 # 50206d78 <screen_cursor_x>
    50201664:	439c                	lw	a5,0(a5)
    50201666:	873e                	mv	a4,a5
    50201668:	04f00793          	li	a5,79
    5020166c:	02e7d563          	bge	a5,a4,50201696 <screen_write_ch+0x106>
    50201670:	00005797          	auipc	a5,0x5
    50201674:	70c78793          	addi	a5,a5,1804 # 50206d7c <screen_cursor_y>
    50201678:	439c                	lw	a5,0(a5)
    5020167a:	2785                	addiw	a5,a5,1
    5020167c:	0007871b          	sext.w	a4,a5
    50201680:	00005797          	auipc	a5,0x5
    50201684:	6fc78793          	addi	a5,a5,1788 # 50206d7c <screen_cursor_y>
    50201688:	c398                	sw	a4,0(a5)
    5020168a:	00005797          	auipc	a5,0x5
    5020168e:	6ee78793          	addi	a5,a5,1774 # 50206d78 <screen_cursor_x>
    50201692:	0007a023          	sw	zero,0(a5)
    50201696:	00005797          	auipc	a5,0x5
    5020169a:	6e678793          	addi	a5,a5,1766 # 50206d7c <screen_cursor_y>
    5020169e:	439c                	lw	a5,0(a5)
    502016a0:	0007de63          	bgez	a5,502016bc <screen_write_ch+0x12c>
    502016a4:	00005797          	auipc	a5,0x5
    502016a8:	6d878793          	addi	a5,a5,1752 # 50206d7c <screen_cursor_y>
    502016ac:	0007a023          	sw	zero,0(a5)
    502016b0:	00005797          	auipc	a5,0x5
    502016b4:	6c878793          	addi	a5,a5,1736 # 50206d78 <screen_cursor_x>
    502016b8:	0007a023          	sw	zero,0(a5)
    502016bc:	00005797          	auipc	a5,0x5
    502016c0:	6c078793          	addi	a5,a5,1728 # 50206d7c <screen_cursor_y>
    502016c4:	439c                	lw	a5,0(a5)
    502016c6:	873e                	mv	a4,a5
    502016c8:	03100793          	li	a5,49
    502016cc:	00e7de63          	bge	a5,a4,502016e8 <screen_write_ch+0x158>
    502016d0:	00005797          	auipc	a5,0x5
    502016d4:	6ac78793          	addi	a5,a5,1708 # 50206d7c <screen_cursor_y>
    502016d8:	0007a023          	sw	zero,0(a5)
    502016dc:	00005797          	auipc	a5,0x5
    502016e0:	69c78793          	addi	a5,a5,1692 # 50206d78 <screen_cursor_x>
    502016e4:	0007a023          	sw	zero,0(a5)
    502016e8:	00005797          	auipc	a5,0x5
    502016ec:	7b078793          	addi	a5,a5,1968 # 50206e98 <current_running>
    502016f0:	639c                	ld	a5,0(a5)
    502016f2:	00005717          	auipc	a4,0x5
    502016f6:	68670713          	addi	a4,a4,1670 # 50206d78 <screen_cursor_x>
    502016fa:	4318                	lw	a4,0(a4)
    502016fc:	c3b8                	sw	a4,64(a5)
    502016fe:	00005797          	auipc	a5,0x5
    50201702:	79a78793          	addi	a5,a5,1946 # 50206e98 <current_running>
    50201706:	639c                	ld	a5,0(a5)
    50201708:	00005717          	auipc	a4,0x5
    5020170c:	67470713          	addi	a4,a4,1652 # 50206d7c <screen_cursor_y>
    50201710:	4318                	lw	a4,0(a4)
    50201712:	c3f8                	sw	a4,68(a5)
    50201714:	0001                	nop
    50201716:	6462                	ld	s0,24(sp)
    50201718:	6105                	addi	sp,sp,32
    5020171a:	8082                	ret

000000005020171c <init_screen>:
    5020171c:	1141                	addi	sp,sp,-16
    5020171e:	e406                	sd	ra,8(sp)
    50201720:	e022                	sd	s0,0(sp)
    50201722:	0800                	addi	s0,sp,16
    50201724:	e4dff0ef          	jal	ra,50201570 <vt100_hidden_cursor>
    50201728:	e29ff0ef          	jal	ra,50201550 <vt100_clear>
    5020172c:	0001                	nop
    5020172e:	60a2                	ld	ra,8(sp)
    50201730:	6402                	ld	s0,0(sp)
    50201732:	0141                	addi	sp,sp,16
    50201734:	8082                	ret

0000000050201736 <screen_clear>:
    50201736:	1101                	addi	sp,sp,-32
    50201738:	ec06                	sd	ra,24(sp)
    5020173a:	e822                	sd	s0,16(sp)
    5020173c:	1000                	addi	s0,sp,32
    5020173e:	fe042623          	sw	zero,-20(s0)
    50201742:	a041                	j	502017c2 <screen_clear+0x8c>
    50201744:	fe042423          	sw	zero,-24(s0)
    50201748:	a085                	j	502017a8 <screen_clear+0x72>
    5020174a:	fec42703          	lw	a4,-20(s0)
    5020174e:	87ba                	mv	a5,a4
    50201750:	0027979b          	slliw	a5,a5,0x2
    50201754:	9fb9                	addw	a5,a5,a4
    50201756:	0047979b          	slliw	a5,a5,0x4
    5020175a:	2781                	sext.w	a5,a5
    5020175c:	fe842703          	lw	a4,-24(s0)
    50201760:	9fb9                	addw	a5,a5,a4
    50201762:	2781                	sext.w	a5,a5
    50201764:	00003717          	auipc	a4,0x3
    50201768:	5e470713          	addi	a4,a4,1508 # 50204d48 <new_screen>
    5020176c:	97ba                	add	a5,a5,a4
    5020176e:	02000713          	li	a4,32
    50201772:	00e78023          	sb	a4,0(a5)
    50201776:	fec42703          	lw	a4,-20(s0)
    5020177a:	87ba                	mv	a5,a4
    5020177c:	0027979b          	slliw	a5,a5,0x2
    50201780:	9fb9                	addw	a5,a5,a4
    50201782:	0047979b          	slliw	a5,a5,0x4
    50201786:	2781                	sext.w	a5,a5
    50201788:	fe842703          	lw	a4,-24(s0)
    5020178c:	9fb9                	addw	a5,a5,a4
    5020178e:	2781                	sext.w	a5,a5
    50201790:	00004717          	auipc	a4,0x4
    50201794:	55870713          	addi	a4,a4,1368 # 50205ce8 <old_screen>
    50201798:	97ba                	add	a5,a5,a4
    5020179a:	00078023          	sb	zero,0(a5)
    5020179e:	fe842783          	lw	a5,-24(s0)
    502017a2:	2785                	addiw	a5,a5,1
    502017a4:	fef42423          	sw	a5,-24(s0)
    502017a8:	fe842783          	lw	a5,-24(s0)
    502017ac:	0007871b          	sext.w	a4,a5
    502017b0:	04f00793          	li	a5,79
    502017b4:	f8e7dbe3          	bge	a5,a4,5020174a <screen_clear+0x14>
    502017b8:	fec42783          	lw	a5,-20(s0)
    502017bc:	2785                	addiw	a5,a5,1
    502017be:	fef42623          	sw	a5,-20(s0)
    502017c2:	fec42783          	lw	a5,-20(s0)
    502017c6:	0007871b          	sext.w	a4,a5
    502017ca:	03100793          	li	a5,49
    502017ce:	f6e7dbe3          	bge	a5,a4,50201744 <screen_clear+0xe>
    502017d2:	00005797          	auipc	a5,0x5
    502017d6:	5a678793          	addi	a5,a5,1446 # 50206d78 <screen_cursor_x>
    502017da:	0007a023          	sw	zero,0(a5)
    502017de:	00005797          	auipc	a5,0x5
    502017e2:	59e78793          	addi	a5,a5,1438 # 50206d7c <screen_cursor_y>
    502017e6:	0007a023          	sw	zero,0(a5)
    502017ea:	0d0000ef          	jal	ra,502018ba <screen_reflush>
    502017ee:	0001                	nop
    502017f0:	60e2                	ld	ra,24(sp)
    502017f2:	6442                	ld	s0,16(sp)
    502017f4:	6105                	addi	sp,sp,32
    502017f6:	8082                	ret

00000000502017f8 <screen_move_cursor>:
    502017f8:	1101                	addi	sp,sp,-32
    502017fa:	ec22                	sd	s0,24(sp)
    502017fc:	1000                	addi	s0,sp,32
    502017fe:	87aa                	mv	a5,a0
    50201800:	872e                	mv	a4,a1
    50201802:	fef42623          	sw	a5,-20(s0)
    50201806:	87ba                	mv	a5,a4
    50201808:	fef42423          	sw	a5,-24(s0)
    5020180c:	00005797          	auipc	a5,0x5
    50201810:	56c78793          	addi	a5,a5,1388 # 50206d78 <screen_cursor_x>
    50201814:	fec42703          	lw	a4,-20(s0)
    50201818:	c398                	sw	a4,0(a5)
    5020181a:	00005797          	auipc	a5,0x5
    5020181e:	56278793          	addi	a5,a5,1378 # 50206d7c <screen_cursor_y>
    50201822:	fe842703          	lw	a4,-24(s0)
    50201826:	c398                	sw	a4,0(a5)
    50201828:	00005797          	auipc	a5,0x5
    5020182c:	67078793          	addi	a5,a5,1648 # 50206e98 <current_running>
    50201830:	639c                	ld	a5,0(a5)
    50201832:	00005717          	auipc	a4,0x5
    50201836:	54670713          	addi	a4,a4,1350 # 50206d78 <screen_cursor_x>
    5020183a:	4318                	lw	a4,0(a4)
    5020183c:	c3b8                	sw	a4,64(a5)
    5020183e:	00005797          	auipc	a5,0x5
    50201842:	65a78793          	addi	a5,a5,1626 # 50206e98 <current_running>
    50201846:	639c                	ld	a5,0(a5)
    50201848:	00005717          	auipc	a4,0x5
    5020184c:	53470713          	addi	a4,a4,1332 # 50206d7c <screen_cursor_y>
    50201850:	4318                	lw	a4,0(a4)
    50201852:	c3f8                	sw	a4,68(a5)
    50201854:	0001                	nop
    50201856:	6462                	ld	s0,24(sp)
    50201858:	6105                	addi	sp,sp,32
    5020185a:	8082                	ret

000000005020185c <screen_write>:
    5020185c:	7179                	addi	sp,sp,-48
    5020185e:	f406                	sd	ra,40(sp)
    50201860:	f022                	sd	s0,32(sp)
    50201862:	1800                	addi	s0,sp,48
    50201864:	fca43c23          	sd	a0,-40(s0)
    50201868:	fe042623          	sw	zero,-20(s0)
    5020186c:	fd843503          	ld	a0,-40(s0)
    50201870:	55d000ef          	jal	ra,502025cc <kstrlen>
    50201874:	87aa                	mv	a5,a0
    50201876:	fef42423          	sw	a5,-24(s0)
    5020187a:	fe042623          	sw	zero,-20(s0)
    5020187e:	a005                	j	5020189e <screen_write+0x42>
    50201880:	fec42783          	lw	a5,-20(s0)
    50201884:	fd843703          	ld	a4,-40(s0)
    50201888:	97ba                	add	a5,a5,a4
    5020188a:	0007c783          	lbu	a5,0(a5)
    5020188e:	853e                	mv	a0,a5
    50201890:	d01ff0ef          	jal	ra,50201590 <screen_write_ch>
    50201894:	fec42783          	lw	a5,-20(s0)
    50201898:	2785                	addiw	a5,a5,1
    5020189a:	fef42623          	sw	a5,-20(s0)
    5020189e:	fec42703          	lw	a4,-20(s0)
    502018a2:	fe842783          	lw	a5,-24(s0)
    502018a6:	2701                	sext.w	a4,a4
    502018a8:	2781                	sext.w	a5,a5
    502018aa:	fcf74be3          	blt	a4,a5,50201880 <screen_write+0x24>
    502018ae:	0001                	nop
    502018b0:	0001                	nop
    502018b2:	70a2                	ld	ra,40(sp)
    502018b4:	7402                	ld	s0,32(sp)
    502018b6:	6145                	addi	sp,sp,48
    502018b8:	8082                	ret

00000000502018ba <screen_reflush>:
    502018ba:	1101                	addi	sp,sp,-32
    502018bc:	ec06                	sd	ra,24(sp)
    502018be:	e822                	sd	s0,16(sp)
    502018c0:	1000                	addi	s0,sp,32
    502018c2:	fe042623          	sw	zero,-20(s0)
    502018c6:	aa31                	j	502019e2 <screen_reflush+0x128>
    502018c8:	fe042423          	sw	zero,-24(s0)
    502018cc:	a8f5                	j	502019c8 <screen_reflush+0x10e>
    502018ce:	fec42703          	lw	a4,-20(s0)
    502018d2:	87ba                	mv	a5,a4
    502018d4:	0027979b          	slliw	a5,a5,0x2
    502018d8:	9fb9                	addw	a5,a5,a4
    502018da:	0047979b          	slliw	a5,a5,0x4
    502018de:	2781                	sext.w	a5,a5
    502018e0:	fe842703          	lw	a4,-24(s0)
    502018e4:	9fb9                	addw	a5,a5,a4
    502018e6:	2781                	sext.w	a5,a5
    502018e8:	00003717          	auipc	a4,0x3
    502018ec:	46070713          	addi	a4,a4,1120 # 50204d48 <new_screen>
    502018f0:	97ba                	add	a5,a5,a4
    502018f2:	0007c683          	lbu	a3,0(a5)
    502018f6:	fec42703          	lw	a4,-20(s0)
    502018fa:	87ba                	mv	a5,a4
    502018fc:	0027979b          	slliw	a5,a5,0x2
    50201900:	9fb9                	addw	a5,a5,a4
    50201902:	0047979b          	slliw	a5,a5,0x4
    50201906:	2781                	sext.w	a5,a5
    50201908:	fe842703          	lw	a4,-24(s0)
    5020190c:	9fb9                	addw	a5,a5,a4
    5020190e:	2781                	sext.w	a5,a5
    50201910:	00004717          	auipc	a4,0x4
    50201914:	3d870713          	addi	a4,a4,984 # 50205ce8 <old_screen>
    50201918:	97ba                	add	a5,a5,a4
    5020191a:	0007c783          	lbu	a5,0(a5)
    5020191e:	8736                	mv	a4,a3
    50201920:	08f70f63          	beq	a4,a5,502019be <screen_reflush+0x104>
    50201924:	fe842783          	lw	a5,-24(s0)
    50201928:	2785                	addiw	a5,a5,1
    5020192a:	0007871b          	sext.w	a4,a5
    5020192e:	fec42783          	lw	a5,-20(s0)
    50201932:	2785                	addiw	a5,a5,1
    50201934:	2781                	sext.w	a5,a5
    50201936:	85be                	mv	a1,a5
    50201938:	853a                	mv	a0,a4
    5020193a:	bb5ff0ef          	jal	ra,502014ee <vt100_move_cursor>
    5020193e:	fec42703          	lw	a4,-20(s0)
    50201942:	87ba                	mv	a5,a4
    50201944:	0027979b          	slliw	a5,a5,0x2
    50201948:	9fb9                	addw	a5,a5,a4
    5020194a:	0047979b          	slliw	a5,a5,0x4
    5020194e:	2781                	sext.w	a5,a5
    50201950:	fe842703          	lw	a4,-24(s0)
    50201954:	9fb9                	addw	a5,a5,a4
    50201956:	2781                	sext.w	a5,a5
    50201958:	00003717          	auipc	a4,0x3
    5020195c:	3f070713          	addi	a4,a4,1008 # 50204d48 <new_screen>
    50201960:	97ba                	add	a5,a5,a4
    50201962:	0007c783          	lbu	a5,0(a5)
    50201966:	853e                	mv	a0,a5
    50201968:	9c9fe0ef          	jal	ra,50200330 <port_write_ch>
    5020196c:	fec42703          	lw	a4,-20(s0)
    50201970:	87ba                	mv	a5,a4
    50201972:	0027979b          	slliw	a5,a5,0x2
    50201976:	9fb9                	addw	a5,a5,a4
    50201978:	0047979b          	slliw	a5,a5,0x4
    5020197c:	2781                	sext.w	a5,a5
    5020197e:	fe842703          	lw	a4,-24(s0)
    50201982:	9fb9                	addw	a5,a5,a4
    50201984:	0007869b          	sext.w	a3,a5
    50201988:	fec42703          	lw	a4,-20(s0)
    5020198c:	87ba                	mv	a5,a4
    5020198e:	0027979b          	slliw	a5,a5,0x2
    50201992:	9fb9                	addw	a5,a5,a4
    50201994:	0047979b          	slliw	a5,a5,0x4
    50201998:	2781                	sext.w	a5,a5
    5020199a:	fe842703          	lw	a4,-24(s0)
    5020199e:	9fb9                	addw	a5,a5,a4
    502019a0:	2781                	sext.w	a5,a5
    502019a2:	00003717          	auipc	a4,0x3
    502019a6:	3a670713          	addi	a4,a4,934 # 50204d48 <new_screen>
    502019aa:	9736                	add	a4,a4,a3
    502019ac:	00074703          	lbu	a4,0(a4)
    502019b0:	00004697          	auipc	a3,0x4
    502019b4:	33868693          	addi	a3,a3,824 # 50205ce8 <old_screen>
    502019b8:	97b6                	add	a5,a5,a3
    502019ba:	00e78023          	sb	a4,0(a5)
    502019be:	fe842783          	lw	a5,-24(s0)
    502019c2:	2785                	addiw	a5,a5,1
    502019c4:	fef42423          	sw	a5,-24(s0)
    502019c8:	fe842783          	lw	a5,-24(s0)
    502019cc:	0007871b          	sext.w	a4,a5
    502019d0:	04f00793          	li	a5,79
    502019d4:	eee7dde3          	bge	a5,a4,502018ce <screen_reflush+0x14>
    502019d8:	fec42783          	lw	a5,-20(s0)
    502019dc:	2785                	addiw	a5,a5,1
    502019de:	fef42623          	sw	a5,-20(s0)
    502019e2:	fec42783          	lw	a5,-20(s0)
    502019e6:	0007871b          	sext.w	a4,a5
    502019ea:	03100793          	li	a5,49
    502019ee:	ece7dde3          	bge	a5,a4,502018c8 <screen_reflush+0xe>
    502019f2:	00005797          	auipc	a5,0x5
    502019f6:	38678793          	addi	a5,a5,902 # 50206d78 <screen_cursor_x>
    502019fa:	439c                	lw	a5,0(a5)
    502019fc:	2785                	addiw	a5,a5,1
    502019fe:	0007871b          	sext.w	a4,a5
    50201a02:	00005797          	auipc	a5,0x5
    50201a06:	37a78793          	addi	a5,a5,890 # 50206d7c <screen_cursor_y>
    50201a0a:	439c                	lw	a5,0(a5)
    50201a0c:	2785                	addiw	a5,a5,1
    50201a0e:	2781                	sext.w	a5,a5
    50201a10:	85be                	mv	a1,a5
    50201a12:	853a                	mv	a0,a4
    50201a14:	adbff0ef          	jal	ra,502014ee <vt100_move_cursor>
    50201a18:	0001                	nop
    50201a1a:	60e2                	ld	ra,24(sp)
    50201a1c:	6442                	ld	s0,16(sp)
    50201a1e:	6105                	addi	sp,sp,32
    50201a20:	8082                	ret

0000000050201a22 <getch>:
    50201a22:	1101                	addi	sp,sp,-32
    50201a24:	ec06                	sd	ra,24(sp)
    50201a26:	e822                	sd	s0,16(sp)
    50201a28:	1000                	addi	s0,sp,32
    50201a2a:	949fe0ef          	jal	ra,50200372 <port_read_ch>
    50201a2e:	87aa                	mv	a5,a0
    50201a30:	fef407a3          	sb	a5,-17(s0)
    50201a34:	fef44783          	lbu	a5,-17(s0)
    50201a38:	2781                	sext.w	a5,a5
    50201a3a:	853e                	mv	a0,a5
    50201a3c:	60e2                	ld	ra,24(sp)
    50201a3e:	6442                	ld	s0,16(sp)
    50201a40:	6105                	addi	sp,sp,32
    50201a42:	8082                	ret

0000000050201a44 <assert_supervisor_mode>:
    50201a44:	1141                	addi	sp,sp,-16
    50201a46:	e422                	sd	s0,8(sp)
    50201a48:	0800                	addi	s0,sp,16
    50201a4a:	14002073          	csrr	zero,sscratch
    50201a4e:	0001                	nop
    50201a50:	6422                	ld	s0,8(sp)
    50201a52:	0141                	addi	sp,sp,16
    50201a54:	8082                	ret

0000000050201a56 <do_mutex_lock_init>:
    50201a56:	1101                	addi	sp,sp,-32
    50201a58:	ec06                	sd	ra,24(sp)
    50201a5a:	e822                	sd	s0,16(sp)
    50201a5c:	1000                	addi	s0,sp,32
    50201a5e:	fea43423          	sd	a0,-24(s0)
    50201a62:	fe3ff0ef          	jal	ra,50201a44 <assert_supervisor_mode>
    50201a66:	fe843783          	ld	a5,-24(s0)
    50201a6a:	0007a023          	sw	zero,0(a5)
    50201a6e:	fe843783          	ld	a5,-24(s0)
    50201a72:	0007b823          	sd	zero,16(a5)
    50201a76:	fe843783          	ld	a5,-24(s0)
    50201a7a:	0007bc23          	sd	zero,24(a5)
    50201a7e:	fe843783          	ld	a5,-24(s0)
    50201a82:	0007a423          	sw	zero,8(a5)
    50201a86:	0001                	nop
    50201a88:	60e2                	ld	ra,24(sp)
    50201a8a:	6442                	ld	s0,16(sp)
    50201a8c:	6105                	addi	sp,sp,32
    50201a8e:	8082                	ret

0000000050201a90 <do_mutex_lock_acquire>:
    50201a90:	1101                	addi	sp,sp,-32
    50201a92:	ec06                	sd	ra,24(sp)
    50201a94:	e822                	sd	s0,16(sp)
    50201a96:	1000                	addi	s0,sp,32
    50201a98:	fea43423          	sd	a0,-24(s0)
    50201a9c:	fe843783          	ld	a5,-24(s0)
    50201aa0:	439c                	lw	a5,0(a5)
    50201aa2:	2781                	sext.w	a5,a5
    50201aa4:	873e                	mv	a4,a5
    50201aa6:	4785                	li	a5,1
    50201aa8:	04f71163          	bne	a4,a5,50201aea <do_mutex_lock_acquire+0x5a>
    50201aac:	00005797          	auipc	a5,0x5
    50201ab0:	3ec78793          	addi	a5,a5,1004 # 50206e98 <current_running>
    50201ab4:	639c                	ld	a5,0(a5)
    50201ab6:	0207a023          	sw	zero,32(a5)
    50201aba:	00005797          	auipc	a5,0x5
    50201abe:	3c678793          	addi	a5,a5,966 # 50206e80 <ready_queue>
    50201ac2:	6b98                	ld	a4,16(a5)
    50201ac4:	fe843783          	ld	a5,-24(s0)
    50201ac8:	07a1                	addi	a5,a5,8
    50201aca:	85be                	mv	a1,a5
    50201acc:	853a                	mv	a0,a4
    50201ace:	3ba000ef          	jal	ra,50201e88 <do_block>
    50201ad2:	fe843783          	ld	a5,-24(s0)
    50201ad6:	479c                	lw	a5,8(a5)
    50201ad8:	2785                	addiw	a5,a5,1
    50201ada:	0007871b          	sext.w	a4,a5
    50201ade:	fe843783          	ld	a5,-24(s0)
    50201ae2:	c798                	sw	a4,8(a5)
    50201ae4:	126000ef          	jal	ra,50201c0a <do_scheduler>
    50201ae8:	a029                	j	50201af2 <do_mutex_lock_acquire+0x62>
    50201aea:	fe843783          	ld	a5,-24(s0)
    50201aee:	4705                	li	a4,1
    50201af0:	c398                	sw	a4,0(a5)
    50201af2:	0001                	nop
    50201af4:	60e2                	ld	ra,24(sp)
    50201af6:	6442                	ld	s0,16(sp)
    50201af8:	6105                	addi	sp,sp,32
    50201afa:	8082                	ret

0000000050201afc <do_mutex_lock_release>:
    50201afc:	1101                	addi	sp,sp,-32
    50201afe:	ec06                	sd	ra,24(sp)
    50201b00:	e822                	sd	s0,16(sp)
    50201b02:	1000                	addi	s0,sp,32
    50201b04:	fea43423          	sd	a0,-24(s0)
    50201b08:	fe843783          	ld	a5,-24(s0)
    50201b0c:	479c                	lw	a5,8(a5)
    50201b0e:	04f05163          	blez	a5,50201b50 <do_mutex_lock_release+0x54>
    50201b12:	fe843783          	ld	a5,-24(s0)
    50201b16:	6b9c                	ld	a5,16(a5)
    50201b18:	4398                	lw	a4,0(a5)
    50201b1a:	00005697          	auipc	a3,0x5
    50201b1e:	39e68693          	addi	a3,a3,926 # 50206eb8 <pcb>
    50201b22:	87ba                	mv	a5,a4
    50201b24:	078e                	slli	a5,a5,0x3
    50201b26:	97ba                	add	a5,a5,a4
    50201b28:	078e                	slli	a5,a5,0x3
    50201b2a:	97b6                	add	a5,a5,a3
    50201b2c:	4709                	li	a4,2
    50201b2e:	d398                	sw	a4,32(a5)
    50201b30:	fe843783          	ld	a5,-24(s0)
    50201b34:	6b9c                	ld	a5,16(a5)
    50201b36:	853e                	mv	a0,a5
    50201b38:	3de000ef          	jal	ra,50201f16 <do_unblock>
    50201b3c:	fe843783          	ld	a5,-24(s0)
    50201b40:	479c                	lw	a5,8(a5)
    50201b42:	37fd                	addiw	a5,a5,-1
    50201b44:	0007871b          	sext.w	a4,a5
    50201b48:	fe843783          	ld	a5,-24(s0)
    50201b4c:	c798                	sw	a4,8(a5)
    50201b4e:	a029                	j	50201b58 <do_mutex_lock_release+0x5c>
    50201b50:	fe843783          	ld	a5,-24(s0)
    50201b54:	0007a023          	sw	zero,0(a5)
    50201b58:	0001                	nop
    50201b5a:	60e2                	ld	ra,24(sp)
    50201b5c:	6442                	ld	s0,16(sp)
    50201b5e:	6105                	addi	sp,sp,32
    50201b60:	8082                	ret

0000000050201b62 <get_mutex>:
    50201b62:	1101                	addi	sp,sp,-32
    50201b64:	ec06                	sd	ra,24(sp)
    50201b66:	e822                	sd	s0,16(sp)
    50201b68:	1000                	addi	s0,sp,32
    50201b6a:	fea43423          	sd	a0,-24(s0)
    50201b6e:	84818793          	addi	a5,gp,-1976 # 50204d30 <lock_num>
    50201b72:	439c                	lw	a5,0(a5)
    50201b74:	00579713          	slli	a4,a5,0x5
    50201b78:	00005797          	auipc	a5,0x5
    50201b7c:	20878793          	addi	a5,a5,520 # 50206d80 <lock_array>
    50201b80:	97ba                	add	a5,a5,a4
    50201b82:	853e                	mv	a0,a5
    50201b84:	ed3ff0ef          	jal	ra,50201a56 <do_mutex_lock_init>
    50201b88:	84818793          	addi	a5,gp,-1976 # 50204d30 <lock_num>
    50201b8c:	439c                	lw	a5,0(a5)
    50201b8e:	0017871b          	addiw	a4,a5,1
    50201b92:	0007069b          	sext.w	a3,a4
    50201b96:	84818713          	addi	a4,gp,-1976 # 50204d30 <lock_num>
    50201b9a:	c314                	sw	a3,0(a4)
    50201b9c:	853e                	mv	a0,a5
    50201b9e:	60e2                	ld	ra,24(sp)
    50201ba0:	6442                	ld	s0,16(sp)
    50201ba2:	6105                	addi	sp,sp,32
    50201ba4:	8082                	ret

0000000050201ba6 <lock_mutex>:
    50201ba6:	1101                	addi	sp,sp,-32
    50201ba8:	ec06                	sd	ra,24(sp)
    50201baa:	e822                	sd	s0,16(sp)
    50201bac:	1000                	addi	s0,sp,32
    50201bae:	87aa                	mv	a5,a0
    50201bb0:	fef42623          	sw	a5,-20(s0)
    50201bb4:	fec42783          	lw	a5,-20(s0)
    50201bb8:	00579713          	slli	a4,a5,0x5
    50201bbc:	00005797          	auipc	a5,0x5
    50201bc0:	1c478793          	addi	a5,a5,452 # 50206d80 <lock_array>
    50201bc4:	97ba                	add	a5,a5,a4
    50201bc6:	853e                	mv	a0,a5
    50201bc8:	ec9ff0ef          	jal	ra,50201a90 <do_mutex_lock_acquire>
    50201bcc:	4781                	li	a5,0
    50201bce:	853e                	mv	a0,a5
    50201bd0:	60e2                	ld	ra,24(sp)
    50201bd2:	6442                	ld	s0,16(sp)
    50201bd4:	6105                	addi	sp,sp,32
    50201bd6:	8082                	ret

0000000050201bd8 <unlock_mutex>:
    50201bd8:	1101                	addi	sp,sp,-32
    50201bda:	ec06                	sd	ra,24(sp)
    50201bdc:	e822                	sd	s0,16(sp)
    50201bde:	1000                	addi	s0,sp,32
    50201be0:	87aa                	mv	a5,a0
    50201be2:	fef42623          	sw	a5,-20(s0)
    50201be6:	fec42783          	lw	a5,-20(s0)
    50201bea:	00579713          	slli	a4,a5,0x5
    50201bee:	00005797          	auipc	a5,0x5
    50201bf2:	19278793          	addi	a5,a5,402 # 50206d80 <lock_array>
    50201bf6:	97ba                	add	a5,a5,a4
    50201bf8:	853e                	mv	a0,a5
    50201bfa:	f03ff0ef          	jal	ra,50201afc <do_mutex_lock_release>
    50201bfe:	4781                	li	a5,0
    50201c00:	853e                	mv	a0,a5
    50201c02:	60e2                	ld	ra,24(sp)
    50201c04:	6442                	ld	s0,16(sp)
    50201c06:	6105                	addi	sp,sp,32
    50201c08:	8082                	ret

0000000050201c0a <do_scheduler>:
    50201c0a:	715d                	addi	sp,sp,-80
    50201c0c:	e486                	sd	ra,72(sp)
    50201c0e:	e0a2                	sd	s0,64(sp)
    50201c10:	0880                	addi	s0,sp,80
    50201c12:	037000ef          	jal	ra,50202448 <get_timer>
    50201c16:	fca43c23          	sd	a0,-40(s0)
    50201c1a:	00005797          	auipc	a5,0x5
    50201c1e:	28678793          	addi	a5,a5,646 # 50206ea0 <sleep_queue>
    50201c22:	439c                	lw	a5,0(a5)
    50201c24:	fcf42a23          	sw	a5,-44(s0)
    50201c28:	fe042623          	sw	zero,-20(s0)
    50201c2c:	00005797          	auipc	a5,0x5
    50201c30:	27478793          	addi	a5,a5,628 # 50206ea0 <sleep_queue>
    50201c34:	679c                	ld	a5,8(a5)
    50201c36:	fef43023          	sd	a5,-32(s0)
    50201c3a:	a89d                	j	50201cb0 <do_scheduler+0xa6>
    50201c3c:	fe043783          	ld	a5,-32(s0)
    50201c40:	4398                	lw	a4,0(a5)
    50201c42:	00005697          	auipc	a3,0x5
    50201c46:	27668693          	addi	a3,a3,630 # 50206eb8 <pcb>
    50201c4a:	87ba                	mv	a5,a4
    50201c4c:	078e                	slli	a5,a5,0x3
    50201c4e:	97ba                	add	a5,a5,a4
    50201c50:	078e                	slli	a5,a5,0x3
    50201c52:	97b6                	add	a5,a5,a3
    50201c54:	779c                	ld	a5,40(a5)
    50201c56:	fd843703          	ld	a4,-40(s0)
    50201c5a:	04f76163          	bltu	a4,a5,50201c9c <do_scheduler+0x92>
    50201c5e:	fe043783          	ld	a5,-32(s0)
    50201c62:	4398                	lw	a4,0(a5)
    50201c64:	00005697          	auipc	a3,0x5
    50201c68:	25468693          	addi	a3,a3,596 # 50206eb8 <pcb>
    50201c6c:	87ba                	mv	a5,a4
    50201c6e:	078e                	slli	a5,a5,0x3
    50201c70:	97ba                	add	a5,a5,a4
    50201c72:	078e                	slli	a5,a5,0x3
    50201c74:	97b6                	add	a5,a5,a3
    50201c76:	4709                	li	a4,2
    50201c78:	d398                	sw	a4,32(a5)
    50201c7a:	fe043503          	ld	a0,-32(s0)
    50201c7e:	298000ef          	jal	ra,50201f16 <do_unblock>
    50201c82:	00005797          	auipc	a5,0x5
    50201c86:	21e78793          	addi	a5,a5,542 # 50206ea0 <sleep_queue>
    50201c8a:	439c                	lw	a5,0(a5)
    50201c8c:	37fd                	addiw	a5,a5,-1
    50201c8e:	0007871b          	sext.w	a4,a5
    50201c92:	00005797          	auipc	a5,0x5
    50201c96:	20e78793          	addi	a5,a5,526 # 50206ea0 <sleep_queue>
    50201c9a:	c398                	sw	a4,0(a5)
    50201c9c:	fec42783          	lw	a5,-20(s0)
    50201ca0:	2785                	addiw	a5,a5,1
    50201ca2:	fef42623          	sw	a5,-20(s0)
    50201ca6:	fe043783          	ld	a5,-32(s0)
    50201caa:	679c                	ld	a5,8(a5)
    50201cac:	fef43023          	sd	a5,-32(s0)
    50201cb0:	00005797          	auipc	a5,0x5
    50201cb4:	1f078793          	addi	a5,a5,496 # 50206ea0 <sleep_queue>
    50201cb8:	439c                	lw	a5,0(a5)
    50201cba:	00f05a63          	blez	a5,50201cce <do_scheduler+0xc4>
    50201cbe:	fec42703          	lw	a4,-20(s0)
    50201cc2:	fd442783          	lw	a5,-44(s0)
    50201cc6:	2701                	sext.w	a4,a4
    50201cc8:	2781                	sext.w	a5,a5
    50201cca:	f6f749e3          	blt	a4,a5,50201c3c <do_scheduler+0x32>
    50201cce:	00005797          	auipc	a5,0x5
    50201cd2:	1b278793          	addi	a5,a5,434 # 50206e80 <ready_queue>
    50201cd6:	679c                	ld	a5,8(a5)
    50201cd8:	fcf43423          	sd	a5,-56(s0)
    50201cdc:	fc843783          	ld	a5,-56(s0)
    50201ce0:	439c                	lw	a5,0(a5)
    50201ce2:	fcf42223          	sw	a5,-60(s0)
    50201ce6:	00005797          	auipc	a5,0x5
    50201cea:	1b278793          	addi	a5,a5,434 # 50206e98 <current_running>
    50201cee:	639c                	ld	a5,0(a5)
    50201cf0:	faf43c23          	sd	a5,-72(s0)
    50201cf4:	00005797          	auipc	a5,0x5
    50201cf8:	08478793          	addi	a5,a5,132 # 50206d78 <screen_cursor_x>
    50201cfc:	4398                	lw	a4,0(a5)
    50201cfe:	fb843783          	ld	a5,-72(s0)
    50201d02:	c3b8                	sw	a4,64(a5)
    50201d04:	00005797          	auipc	a5,0x5
    50201d08:	07878793          	addi	a5,a5,120 # 50206d7c <screen_cursor_y>
    50201d0c:	4398                	lw	a4,0(a5)
    50201d0e:	fb843783          	ld	a5,-72(s0)
    50201d12:	c3f8                	sw	a4,68(a5)
    50201d14:	fb843783          	ld	a5,-72(s0)
    50201d18:	4709                	li	a4,2
    50201d1a:	d398                	sw	a4,32(a5)
    50201d1c:	fc442703          	lw	a4,-60(s0)
    50201d20:	87ba                	mv	a5,a4
    50201d22:	078e                	slli	a5,a5,0x3
    50201d24:	97ba                	add	a5,a5,a4
    50201d26:	078e                	slli	a5,a5,0x3
    50201d28:	00005717          	auipc	a4,0x5
    50201d2c:	19070713          	addi	a4,a4,400 # 50206eb8 <pcb>
    50201d30:	973e                	add	a4,a4,a5
    50201d32:	00005797          	auipc	a5,0x5
    50201d36:	16678793          	addi	a5,a5,358 # 50206e98 <current_running>
    50201d3a:	e398                	sd	a4,0(a5)
    50201d3c:	00005797          	auipc	a5,0x5
    50201d40:	15c78793          	addi	a5,a5,348 # 50206e98 <current_running>
    50201d44:	639c                	ld	a5,0(a5)
    50201d46:	4705                	li	a4,1
    50201d48:	d398                	sw	a4,32(a5)
    50201d4a:	fc843783          	ld	a5,-56(s0)
    50201d4e:	679c                	ld	a5,8(a5)
    50201d50:	00005717          	auipc	a4,0x5
    50201d54:	13070713          	addi	a4,a4,304 # 50206e80 <ready_queue>
    50201d58:	eb98                	sd	a4,16(a5)
    50201d5a:	fc843783          	ld	a5,-56(s0)
    50201d5e:	6798                	ld	a4,8(a5)
    50201d60:	00005797          	auipc	a5,0x5
    50201d64:	12078793          	addi	a5,a5,288 # 50206e80 <ready_queue>
    50201d68:	e798                	sd	a4,8(a5)
    50201d6a:	00005797          	auipc	a5,0x5
    50201d6e:	11678793          	addi	a5,a5,278 # 50206e80 <ready_queue>
    50201d72:	6b9c                	ld	a5,16(a5)
    50201d74:	fc843703          	ld	a4,-56(s0)
    50201d78:	e798                	sd	a4,8(a5)
    50201d7a:	00005797          	auipc	a5,0x5
    50201d7e:	10678793          	addi	a5,a5,262 # 50206e80 <ready_queue>
    50201d82:	6b98                	ld	a4,16(a5)
    50201d84:	fc843783          	ld	a5,-56(s0)
    50201d88:	eb98                	sd	a4,16(a5)
    50201d8a:	00005797          	auipc	a5,0x5
    50201d8e:	0f678793          	addi	a5,a5,246 # 50206e80 <ready_queue>
    50201d92:	fc843703          	ld	a4,-56(s0)
    50201d96:	eb98                	sd	a4,16(a5)
    50201d98:	fc843783          	ld	a5,-56(s0)
    50201d9c:	00005717          	auipc	a4,0x5
    50201da0:	0e470713          	addi	a4,a4,228 # 50206e80 <ready_queue>
    50201da4:	e798                	sd	a4,8(a5)
    50201da6:	00005797          	auipc	a5,0x5
    50201daa:	0f278793          	addi	a5,a5,242 # 50206e98 <current_running>
    50201dae:	639c                	ld	a5,0(a5)
    50201db0:	43b8                	lw	a4,64(a5)
    50201db2:	00005797          	auipc	a5,0x5
    50201db6:	0e678793          	addi	a5,a5,230 # 50206e98 <current_running>
    50201dba:	639c                	ld	a5,0(a5)
    50201dbc:	43fc                	lw	a5,68(a5)
    50201dbe:	85be                	mv	a1,a5
    50201dc0:	853a                	mv	a0,a4
    50201dc2:	f2cff0ef          	jal	ra,502014ee <vt100_move_cursor>
    50201dc6:	00005797          	auipc	a5,0x5
    50201dca:	0d278793          	addi	a5,a5,210 # 50206e98 <current_running>
    50201dce:	639c                	ld	a5,0(a5)
    50201dd0:	43b8                	lw	a4,64(a5)
    50201dd2:	00005797          	auipc	a5,0x5
    50201dd6:	fa678793          	addi	a5,a5,-90 # 50206d78 <screen_cursor_x>
    50201dda:	c398                	sw	a4,0(a5)
    50201ddc:	00005797          	auipc	a5,0x5
    50201de0:	0bc78793          	addi	a5,a5,188 # 50206e98 <current_running>
    50201de4:	639c                	ld	a5,0(a5)
    50201de6:	43f8                	lw	a4,68(a5)
    50201de8:	00005797          	auipc	a5,0x5
    50201dec:	f9478793          	addi	a5,a5,-108 # 50206d7c <screen_cursor_y>
    50201df0:	c398                	sw	a4,0(a5)
    50201df2:	00005797          	auipc	a5,0x5
    50201df6:	0a678793          	addi	a5,a5,166 # 50206e98 <current_running>
    50201dfa:	639c                	ld	a5,0(a5)
    50201dfc:	85be                	mv	a1,a5
    50201dfe:	fb843503          	ld	a0,-72(s0)
    50201e02:	acafe0ef          	jal	ra,502000cc <switch_to>
    50201e06:	0001                	nop
    50201e08:	60a6                	ld	ra,72(sp)
    50201e0a:	6406                	ld	s0,64(sp)
    50201e0c:	6161                	addi	sp,sp,80
    50201e0e:	8082                	ret

0000000050201e10 <do_sleep>:
    50201e10:	7179                	addi	sp,sp,-48
    50201e12:	f406                	sd	ra,40(sp)
    50201e14:	f022                	sd	s0,32(sp)
    50201e16:	ec26                	sd	s1,24(sp)
    50201e18:	1800                	addi	s0,sp,48
    50201e1a:	87aa                	mv	a5,a0
    50201e1c:	fcf42e23          	sw	a5,-36(s0)
    50201e20:	00005797          	auipc	a5,0x5
    50201e24:	07878793          	addi	a5,a5,120 # 50206e98 <current_running>
    50201e28:	639c                	ld	a5,0(a5)
    50201e2a:	0207a023          	sw	zero,32(a5)
    50201e2e:	fdc46483          	lwu	s1,-36(s0)
    50201e32:	616000ef          	jal	ra,50202448 <get_timer>
    50201e36:	872a                	mv	a4,a0
    50201e38:	00005797          	auipc	a5,0x5
    50201e3c:	06078793          	addi	a5,a5,96 # 50206e98 <current_running>
    50201e40:	639c                	ld	a5,0(a5)
    50201e42:	9726                	add	a4,a4,s1
    50201e44:	f798                	sd	a4,40(a5)
    50201e46:	00005797          	auipc	a5,0x5
    50201e4a:	03a78793          	addi	a5,a5,58 # 50206e80 <ready_queue>
    50201e4e:	6b9c                	ld	a5,16(a5)
    50201e50:	00005597          	auipc	a1,0x5
    50201e54:	05058593          	addi	a1,a1,80 # 50206ea0 <sleep_queue>
    50201e58:	853e                	mv	a0,a5
    50201e5a:	02e000ef          	jal	ra,50201e88 <do_block>
    50201e5e:	00005797          	auipc	a5,0x5
    50201e62:	04278793          	addi	a5,a5,66 # 50206ea0 <sleep_queue>
    50201e66:	439c                	lw	a5,0(a5)
    50201e68:	2785                	addiw	a5,a5,1
    50201e6a:	0007871b          	sext.w	a4,a5
    50201e6e:	00005797          	auipc	a5,0x5
    50201e72:	03278793          	addi	a5,a5,50 # 50206ea0 <sleep_queue>
    50201e76:	c398                	sw	a4,0(a5)
    50201e78:	d93ff0ef          	jal	ra,50201c0a <do_scheduler>
    50201e7c:	0001                	nop
    50201e7e:	70a2                	ld	ra,40(sp)
    50201e80:	7402                	ld	s0,32(sp)
    50201e82:	64e2                	ld	s1,24(sp)
    50201e84:	6145                	addi	sp,sp,48
    50201e86:	8082                	ret

0000000050201e88 <do_block>:
    50201e88:	7179                	addi	sp,sp,-48
    50201e8a:	f422                	sd	s0,40(sp)
    50201e8c:	1800                	addi	s0,sp,48
    50201e8e:	fca43c23          	sd	a0,-40(s0)
    50201e92:	fcb43823          	sd	a1,-48(s0)
    50201e96:	fd843783          	ld	a5,-40(s0)
    50201e9a:	679c                	ld	a5,8(a5)
    50201e9c:	fd843703          	ld	a4,-40(s0)
    50201ea0:	6b18                	ld	a4,16(a4)
    50201ea2:	eb98                	sd	a4,16(a5)
    50201ea4:	fd843783          	ld	a5,-40(s0)
    50201ea8:	6b9c                	ld	a5,16(a5)
    50201eaa:	fd843703          	ld	a4,-40(s0)
    50201eae:	6718                	ld	a4,8(a4)
    50201eb0:	e798                	sd	a4,8(a5)
    50201eb2:	00005797          	auipc	a5,0x5
    50201eb6:	fce78793          	addi	a5,a5,-50 # 50206e80 <ready_queue>
    50201eba:	439c                	lw	a5,0(a5)
    50201ebc:	37fd                	addiw	a5,a5,-1
    50201ebe:	0007871b          	sext.w	a4,a5
    50201ec2:	00005797          	auipc	a5,0x5
    50201ec6:	fbe78793          	addi	a5,a5,-66 # 50206e80 <ready_queue>
    50201eca:	c398                	sw	a4,0(a5)
    50201ecc:	fd043783          	ld	a5,-48(s0)
    50201ed0:	439c                	lw	a5,0(a5)
    50201ed2:	e791                	bnez	a5,50201ede <do_block+0x56>
    50201ed4:	fd043783          	ld	a5,-48(s0)
    50201ed8:	fef43423          	sd	a5,-24(s0)
    50201edc:	a031                	j	50201ee8 <do_block+0x60>
    50201ede:	fd043783          	ld	a5,-48(s0)
    50201ee2:	6b9c                	ld	a5,16(a5)
    50201ee4:	fef43423          	sd	a5,-24(s0)
    50201ee8:	fe843783          	ld	a5,-24(s0)
    50201eec:	fd843703          	ld	a4,-40(s0)
    50201ef0:	e798                	sd	a4,8(a5)
    50201ef2:	fd843783          	ld	a5,-40(s0)
    50201ef6:	fe843703          	ld	a4,-24(s0)
    50201efa:	eb98                	sd	a4,16(a5)
    50201efc:	fd843783          	ld	a5,-40(s0)
    50201f00:	0007b423          	sd	zero,8(a5)
    50201f04:	fd043783          	ld	a5,-48(s0)
    50201f08:	fd843703          	ld	a4,-40(s0)
    50201f0c:	eb98                	sd	a4,16(a5)
    50201f0e:	0001                	nop
    50201f10:	7422                	ld	s0,40(sp)
    50201f12:	6145                	addi	sp,sp,48
    50201f14:	8082                	ret

0000000050201f16 <do_unblock>:
    50201f16:	7179                	addi	sp,sp,-48
    50201f18:	f422                	sd	s0,40(sp)
    50201f1a:	1800                	addi	s0,sp,48
    50201f1c:	fca43c23          	sd	a0,-40(s0)
    50201f20:	fd843783          	ld	a5,-40(s0)
    50201f24:	6b9c                	ld	a5,16(a5)
    50201f26:	fef43423          	sd	a5,-24(s0)
    50201f2a:	fd843783          	ld	a5,-40(s0)
    50201f2e:	6798                	ld	a4,8(a5)
    50201f30:	fe843783          	ld	a5,-24(s0)
    50201f34:	e798                	sd	a4,8(a5)
    50201f36:	fd843783          	ld	a5,-40(s0)
    50201f3a:	679c                	ld	a5,8(a5)
    50201f3c:	c799                	beqz	a5,50201f4a <do_unblock+0x34>
    50201f3e:	fd843783          	ld	a5,-40(s0)
    50201f42:	679c                	ld	a5,8(a5)
    50201f44:	fe843703          	ld	a4,-24(s0)
    50201f48:	eb98                	sd	a4,16(a5)
    50201f4a:	00005797          	auipc	a5,0x5
    50201f4e:	f3678793          	addi	a5,a5,-202 # 50206e80 <ready_queue>
    50201f52:	6b98                	ld	a4,16(a5)
    50201f54:	fd843783          	ld	a5,-40(s0)
    50201f58:	eb98                	sd	a4,16(a5)
    50201f5a:	00005797          	auipc	a5,0x5
    50201f5e:	f2678793          	addi	a5,a5,-218 # 50206e80 <ready_queue>
    50201f62:	6b9c                	ld	a5,16(a5)
    50201f64:	fd843703          	ld	a4,-40(s0)
    50201f68:	e798                	sd	a4,8(a5)
    50201f6a:	00005797          	auipc	a5,0x5
    50201f6e:	f1678793          	addi	a5,a5,-234 # 50206e80 <ready_queue>
    50201f72:	fd843703          	ld	a4,-40(s0)
    50201f76:	eb98                	sd	a4,16(a5)
    50201f78:	fd843783          	ld	a5,-40(s0)
    50201f7c:	00005717          	auipc	a4,0x5
    50201f80:	f0470713          	addi	a4,a4,-252 # 50206e80 <ready_queue>
    50201f84:	e798                	sd	a4,8(a5)
    50201f86:	0001                	nop
    50201f88:	7422                	ld	s0,40(sp)
    50201f8a:	6145                	addi	sp,sp,48
    50201f8c:	8082                	ret

0000000050201f8e <do_fork>:
    50201f8e:	7159                	addi	sp,sp,-112
    50201f90:	f486                	sd	ra,104(sp)
    50201f92:	f0a2                	sd	s0,96(sp)
    50201f94:	1880                	addi	s0,sp,112
    50201f96:	6505                	lui	a0,0x1
    50201f98:	594000ef          	jal	ra,5020252c <kmalloc>
    50201f9c:	87aa                	mv	a5,a0
    50201f9e:	873e                	mv	a4,a5
    50201fa0:	6785                	lui	a5,0x1
    50201fa2:	973e                	add	a4,a4,a5
    50201fa4:	81818793          	addi	a5,gp,-2024 # 50204d00 <kernel_dynamic_start>
    50201fa8:	e398                	sd	a4,0(a5)
    50201faa:	82018793          	addi	a5,gp,-2016 # 50204d08 <user_dynamic_start>
    50201fae:	6398                	ld	a4,0(a5)
    50201fb0:	6785                	lui	a5,0x1
    50201fb2:	973e                	add	a4,a4,a5
    50201fb4:	82018793          	addi	a5,gp,-2016 # 50204d08 <user_dynamic_start>
    50201fb8:	e398                	sd	a4,0(a5)
    50201fba:	81818793          	addi	a5,gp,-2024 # 50204d00 <kernel_dynamic_start>
    50201fbe:	639c                	ld	a5,0(a5)
    50201fc0:	fef43423          	sd	a5,-24(s0)
    50201fc4:	82018793          	addi	a5,gp,-2016 # 50204d08 <user_dynamic_start>
    50201fc8:	639c                	ld	a5,0(a5)
    50201fca:	fef43023          	sd	a5,-32(s0)
    50201fce:	00003797          	auipc	a5,0x3
    50201fd2:	d2a78793          	addi	a5,a5,-726 # 50204cf8 <process_id>
    50201fd6:	4398                	lw	a4,0(a5)
    50201fd8:	81818793          	addi	a5,gp,-2024 # 50204d00 <kernel_dynamic_start>
    50201fdc:	6394                	ld	a3,0(a5)
    50201fde:	00005617          	auipc	a2,0x5
    50201fe2:	eda60613          	addi	a2,a2,-294 # 50206eb8 <pcb>
    50201fe6:	87ba                	mv	a5,a4
    50201fe8:	078e                	slli	a5,a5,0x3
    50201fea:	97ba                	add	a5,a5,a4
    50201fec:	078e                	slli	a5,a5,0x3
    50201fee:	97b2                	add	a5,a5,a2
    50201ff0:	ff94                	sd	a3,56(a5)
    50201ff2:	00005797          	auipc	a5,0x5
    50201ff6:	ea678793          	addi	a5,a5,-346 # 50206e98 <current_running>
    50201ffa:	639c                	ld	a5,0(a5)
    50201ffc:	00003717          	auipc	a4,0x3
    50202000:	cfc70713          	addi	a4,a4,-772 # 50204cf8 <process_id>
    50202004:	4318                	lw	a4,0(a4)
    50202006:	6b94                	ld	a3,16(a5)
    50202008:	00005617          	auipc	a2,0x5
    5020200c:	eb060613          	addi	a2,a2,-336 # 50206eb8 <pcb>
    50202010:	87ba                	mv	a5,a4
    50202012:	078e                	slli	a5,a5,0x3
    50202014:	97ba                	add	a5,a5,a4
    50202016:	078e                	slli	a5,a5,0x3
    50202018:	97b2                	add	a5,a5,a2
    5020201a:	eb94                	sd	a3,16(a5)
    5020201c:	00003797          	auipc	a5,0x3
    50202020:	cdc78793          	addi	a5,a5,-804 # 50204cf8 <process_id>
    50202024:	4398                	lw	a4,0(a5)
    50202026:	00003797          	auipc	a5,0x3
    5020202a:	cd278793          	addi	a5,a5,-814 # 50204cf8 <process_id>
    5020202e:	4394                	lw	a3,0(a5)
    50202030:	00005617          	auipc	a2,0x5
    50202034:	e8860613          	addi	a2,a2,-376 # 50206eb8 <pcb>
    50202038:	87ba                	mv	a5,a4
    5020203a:	078e                	slli	a5,a5,0x3
    5020203c:	97ba                	add	a5,a5,a4
    5020203e:	078e                	slli	a5,a5,0x3
    50202040:	97b2                	add	a5,a5,a2
    50202042:	cf94                	sw	a3,24(a5)
    50202044:	00005797          	auipc	a5,0x5
    50202048:	e5478793          	addi	a5,a5,-428 # 50206e98 <current_running>
    5020204c:	639c                	ld	a5,0(a5)
    5020204e:	00003717          	auipc	a4,0x3
    50202052:	caa70713          	addi	a4,a4,-854 # 50204cf8 <process_id>
    50202056:	4318                	lw	a4,0(a4)
    50202058:	4fd4                	lw	a3,28(a5)
    5020205a:	00005617          	auipc	a2,0x5
    5020205e:	e5e60613          	addi	a2,a2,-418 # 50206eb8 <pcb>
    50202062:	87ba                	mv	a5,a4
    50202064:	078e                	slli	a5,a5,0x3
    50202066:	97ba                	add	a5,a5,a4
    50202068:	078e                	slli	a5,a5,0x3
    5020206a:	97b2                	add	a5,a5,a2
    5020206c:	cfd4                	sw	a3,28(a5)
    5020206e:	00003797          	auipc	a5,0x3
    50202072:	c8a78793          	addi	a5,a5,-886 # 50204cf8 <process_id>
    50202076:	4398                	lw	a4,0(a5)
    50202078:	00005697          	auipc	a3,0x5
    5020207c:	e4068693          	addi	a3,a3,-448 # 50206eb8 <pcb>
    50202080:	87ba                	mv	a5,a4
    50202082:	078e                	slli	a5,a5,0x3
    50202084:	97ba                	add	a5,a5,a4
    50202086:	078e                	slli	a5,a5,0x3
    50202088:	97b6                	add	a5,a5,a3
    5020208a:	4709                	li	a4,2
    5020208c:	d398                	sw	a4,32(a5)
    5020208e:	00005797          	auipc	a5,0x5
    50202092:	e0a78793          	addi	a5,a5,-502 # 50206e98 <current_running>
    50202096:	639c                	ld	a5,0(a5)
    50202098:	00003717          	auipc	a4,0x3
    5020209c:	c6070713          	addi	a4,a4,-928 # 50204cf8 <process_id>
    502020a0:	4318                	lw	a4,0(a4)
    502020a2:	43b4                	lw	a3,64(a5)
    502020a4:	00005617          	auipc	a2,0x5
    502020a8:	e1460613          	addi	a2,a2,-492 # 50206eb8 <pcb>
    502020ac:	87ba                	mv	a5,a4
    502020ae:	078e                	slli	a5,a5,0x3
    502020b0:	97ba                	add	a5,a5,a4
    502020b2:	078e                	slli	a5,a5,0x3
    502020b4:	97b2                	add	a5,a5,a2
    502020b6:	c3b4                	sw	a3,64(a5)
    502020b8:	00005797          	auipc	a5,0x5
    502020bc:	de078793          	addi	a5,a5,-544 # 50206e98 <current_running>
    502020c0:	639c                	ld	a5,0(a5)
    502020c2:	00003717          	auipc	a4,0x3
    502020c6:	c3670713          	addi	a4,a4,-970 # 50204cf8 <process_id>
    502020ca:	4318                	lw	a4,0(a4)
    502020cc:	43f4                	lw	a3,68(a5)
    502020ce:	00005617          	auipc	a2,0x5
    502020d2:	dea60613          	addi	a2,a2,-534 # 50206eb8 <pcb>
    502020d6:	87ba                	mv	a5,a4
    502020d8:	078e                	slli	a5,a5,0x3
    502020da:	97ba                	add	a5,a5,a4
    502020dc:	078e                	slli	a5,a5,0x3
    502020de:	97b2                	add	a5,a5,a2
    502020e0:	c3f4                	sw	a3,68(a5)
    502020e2:	00005797          	auipc	a5,0x5
    502020e6:	db678793          	addi	a5,a5,-586 # 50206e98 <current_running>
    502020ea:	639c                	ld	a5,0(a5)
    502020ec:	00003717          	auipc	a4,0x3
    502020f0:	c0c70713          	addi	a4,a4,-1012 # 50204cf8 <process_id>
    502020f4:	4318                	lw	a4,0(a4)
    502020f6:	7794                	ld	a3,40(a5)
    502020f8:	00005617          	auipc	a2,0x5
    502020fc:	dc060613          	addi	a2,a2,-576 # 50206eb8 <pcb>
    50202100:	87ba                	mv	a5,a4
    50202102:	078e                	slli	a5,a5,0x3
    50202104:	97ba                	add	a5,a5,a4
    50202106:	078e                	slli	a5,a5,0x3
    50202108:	97b2                	add	a5,a5,a2
    5020210a:	f794                	sd	a3,40(a5)
    5020210c:	00005797          	auipc	a5,0x5
    50202110:	d8c78793          	addi	a5,a5,-628 # 50206e98 <current_running>
    50202114:	639c                	ld	a5,0(a5)
    50202116:	7f9c                	ld	a5,56(a5)
    50202118:	fcf43c23          	sd	a5,-40(s0)
    5020211c:	00005797          	auipc	a5,0x5
    50202120:	d7c78793          	addi	a5,a5,-644 # 50206e98 <current_running>
    50202124:	639c                	ld	a5,0(a5)
    50202126:	679c                	ld	a5,8(a5)
    50202128:	83b1                	srli	a5,a5,0xc
    5020212a:	0785                	addi	a5,a5,1
    5020212c:	07b2                	slli	a5,a5,0xc
    5020212e:	fcf43823          	sd	a5,-48(s0)
    50202132:	fd843783          	ld	a5,-40(s0)
    50202136:	0007871b          	sext.w	a4,a5
    5020213a:	00005797          	auipc	a5,0x5
    5020213e:	d5e78793          	addi	a5,a5,-674 # 50206e98 <current_running>
    50202142:	639c                	ld	a5,0(a5)
    50202144:	639c                	ld	a5,0(a5)
    50202146:	2781                	sext.w	a5,a5
    50202148:	40f707bb          	subw	a5,a4,a5
    5020214c:	2781                	sext.w	a5,a5
    5020214e:	fcf42623          	sw	a5,-52(s0)
    50202152:	fd043783          	ld	a5,-48(s0)
    50202156:	0007871b          	sext.w	a4,a5
    5020215a:	00005797          	auipc	a5,0x5
    5020215e:	d3e78793          	addi	a5,a5,-706 # 50206e98 <current_running>
    50202162:	639c                	ld	a5,0(a5)
    50202164:	679c                	ld	a5,8(a5)
    50202166:	2781                	sext.w	a5,a5
    50202168:	40f707bb          	subw	a5,a4,a5
    5020216c:	2781                	sext.w	a5,a5
    5020216e:	fcf42423          	sw	a5,-56(s0)
    50202172:	fcc42783          	lw	a5,-52(s0)
    50202176:	fe843703          	ld	a4,-24(s0)
    5020217a:	40f707b3          	sub	a5,a4,a5
    5020217e:	fef43423          	sd	a5,-24(s0)
    50202182:	fc842783          	lw	a5,-56(s0)
    50202186:	fe043703          	ld	a4,-32(s0)
    5020218a:	40f707b3          	sub	a5,a4,a5
    5020218e:	fef43023          	sd	a5,-32(s0)
    50202192:	00005797          	auipc	a5,0x5
    50202196:	d0678793          	addi	a5,a5,-762 # 50206e98 <current_running>
    5020219a:	639c                	ld	a5,0(a5)
    5020219c:	639c                	ld	a5,0(a5)
    5020219e:	fcc42703          	lw	a4,-52(s0)
    502021a2:	863a                	mv	a2,a4
    502021a4:	85be                	mv	a1,a5
    502021a6:	fe843503          	ld	a0,-24(s0)
    502021aa:	458000ef          	jal	ra,50202602 <kmemcpy>
    502021ae:	00005797          	auipc	a5,0x5
    502021b2:	cea78793          	addi	a5,a5,-790 # 50206e98 <current_running>
    502021b6:	639c                	ld	a5,0(a5)
    502021b8:	679c                	ld	a5,8(a5)
    502021ba:	fc842703          	lw	a4,-56(s0)
    502021be:	863a                	mv	a2,a4
    502021c0:	85be                	mv	a1,a5
    502021c2:	fe043503          	ld	a0,-32(s0)
    502021c6:	43c000ef          	jal	ra,50202602 <kmemcpy>
    502021ca:	fe843783          	ld	a5,-24(s0)
    502021ce:	fcf43023          	sd	a5,-64(s0)
    502021d2:	fc043783          	ld	a5,-64(s0)
    502021d6:	faf43c23          	sd	a5,-72(s0)
    502021da:	fb843783          	ld	a5,-72(s0)
    502021de:	05078793          	addi	a5,a5,80
    502021e2:	0007b023          	sd	zero,0(a5)
    502021e6:	fb843783          	ld	a5,-72(s0)
    502021ea:	07c1                	addi	a5,a5,16
    502021ec:	fe043703          	ld	a4,-32(s0)
    502021f0:	e398                	sd	a4,0(a5)
    502021f2:	fb843783          	ld	a5,-72(s0)
    502021f6:	04078793          	addi	a5,a5,64
    502021fa:	6398                	ld	a4,0(a5)
    502021fc:	00005797          	auipc	a5,0x5
    50202200:	c9c78793          	addi	a5,a5,-868 # 50206e98 <current_running>
    50202204:	639c                	ld	a5,0(a5)
    50202206:	679c                	ld	a5,8(a5)
    50202208:	40f706b3          	sub	a3,a4,a5
    5020220c:	fb843783          	ld	a5,-72(s0)
    50202210:	04078793          	addi	a5,a5,64
    50202214:	fe043703          	ld	a4,-32(s0)
    50202218:	9736                	add	a4,a4,a3
    5020221a:	e398                	sd	a4,0(a5)
    5020221c:	fe843783          	ld	a5,-24(s0)
    50202220:	f9078793          	addi	a5,a5,-112
    50202224:	fef43423          	sd	a5,-24(s0)
    50202228:	fe843783          	ld	a5,-24(s0)
    5020222c:	faf43823          	sd	a5,-80(s0)
    50202230:	fb043783          	ld	a5,-80(s0)
    50202234:	faf43423          	sd	a5,-88(s0)
    50202238:	fb843783          	ld	a5,-72(s0)
    5020223c:	6798                	ld	a4,8(a5)
    5020223e:	fa843783          	ld	a5,-88(s0)
    50202242:	e398                	sd	a4,0(a5)
    50202244:	fa843783          	ld	a5,-88(s0)
    50202248:	07a1                	addi	a5,a5,8
    5020224a:	fe043703          	ld	a4,-32(s0)
    5020224e:	e398                	sd	a4,0(a5)
    50202250:	fa843783          	ld	a5,-88(s0)
    50202254:	07c1                	addi	a5,a5,16
    50202256:	fb843703          	ld	a4,-72(s0)
    5020225a:	6338                	ld	a4,64(a4)
    5020225c:	e398                	sd	a4,0(a5)
    5020225e:	fa843783          	ld	a5,-88(s0)
    50202262:	07e1                	addi	a5,a5,24
    50202264:	fb843703          	ld	a4,-72(s0)
    50202268:	6738                	ld	a4,72(a4)
    5020226a:	e398                	sd	a4,0(a5)
    5020226c:	fa843783          	ld	a5,-88(s0)
    50202270:	02078793          	addi	a5,a5,32
    50202274:	fb843703          	ld	a4,-72(s0)
    50202278:	6b58                	ld	a4,144(a4)
    5020227a:	e398                	sd	a4,0(a5)
    5020227c:	fa843783          	ld	a5,-88(s0)
    50202280:	02878793          	addi	a5,a5,40
    50202284:	fb843703          	ld	a4,-72(s0)
    50202288:	6f58                	ld	a4,152(a4)
    5020228a:	e398                	sd	a4,0(a5)
    5020228c:	fa843783          	ld	a5,-88(s0)
    50202290:	03078793          	addi	a5,a5,48
    50202294:	fb843703          	ld	a4,-72(s0)
    50202298:	7358                	ld	a4,160(a4)
    5020229a:	e398                	sd	a4,0(a5)
    5020229c:	fa843783          	ld	a5,-88(s0)
    502022a0:	03878793          	addi	a5,a5,56
    502022a4:	fb843703          	ld	a4,-72(s0)
    502022a8:	7758                	ld	a4,168(a4)
    502022aa:	e398                	sd	a4,0(a5)
    502022ac:	fa843783          	ld	a5,-88(s0)
    502022b0:	04078793          	addi	a5,a5,64
    502022b4:	fb843703          	ld	a4,-72(s0)
    502022b8:	7b58                	ld	a4,176(a4)
    502022ba:	e398                	sd	a4,0(a5)
    502022bc:	fa843783          	ld	a5,-88(s0)
    502022c0:	04878793          	addi	a5,a5,72
    502022c4:	fb843703          	ld	a4,-72(s0)
    502022c8:	7f58                	ld	a4,184(a4)
    502022ca:	e398                	sd	a4,0(a5)
    502022cc:	fa843783          	ld	a5,-88(s0)
    502022d0:	05078793          	addi	a5,a5,80
    502022d4:	fb843703          	ld	a4,-72(s0)
    502022d8:	6378                	ld	a4,192(a4)
    502022da:	e398                	sd	a4,0(a5)
    502022dc:	fa843783          	ld	a5,-88(s0)
    502022e0:	05878793          	addi	a5,a5,88
    502022e4:	fb843703          	ld	a4,-72(s0)
    502022e8:	6778                	ld	a4,200(a4)
    502022ea:	e398                	sd	a4,0(a5)
    502022ec:	fa843783          	ld	a5,-88(s0)
    502022f0:	06078793          	addi	a5,a5,96
    502022f4:	fb843703          	ld	a4,-72(s0)
    502022f8:	6b78                	ld	a4,208(a4)
    502022fa:	e398                	sd	a4,0(a5)
    502022fc:	fa843783          	ld	a5,-88(s0)
    50202300:	06878793          	addi	a5,a5,104
    50202304:	fb843703          	ld	a4,-72(s0)
    50202308:	6f78                	ld	a4,216(a4)
    5020230a:	e398                	sd	a4,0(a5)
    5020230c:	00003797          	auipc	a5,0x3
    50202310:	9ec78793          	addi	a5,a5,-1556 # 50204cf8 <process_id>
    50202314:	4398                	lw	a4,0(a5)
    50202316:	00005697          	auipc	a3,0x5
    5020231a:	ba268693          	addi	a3,a3,-1118 # 50206eb8 <pcb>
    5020231e:	87ba                	mv	a5,a4
    50202320:	078e                	slli	a5,a5,0x3
    50202322:	97ba                	add	a5,a5,a4
    50202324:	078e                	slli	a5,a5,0x3
    50202326:	97b6                	add	a5,a5,a3
    50202328:	fe843703          	ld	a4,-24(s0)
    5020232c:	e398                	sd	a4,0(a5)
    5020232e:	00003797          	auipc	a5,0x3
    50202332:	9ca78793          	addi	a5,a5,-1590 # 50204cf8 <process_id>
    50202336:	4398                	lw	a4,0(a5)
    50202338:	00005697          	auipc	a3,0x5
    5020233c:	b8068693          	addi	a3,a3,-1152 # 50206eb8 <pcb>
    50202340:	87ba                	mv	a5,a4
    50202342:	078e                	slli	a5,a5,0x3
    50202344:	97ba                	add	a5,a5,a4
    50202346:	078e                	slli	a5,a5,0x3
    50202348:	97b6                	add	a5,a5,a3
    5020234a:	fe043703          	ld	a4,-32(s0)
    5020234e:	e798                	sd	a4,8(a5)
    50202350:	00005797          	auipc	a5,0x5
    50202354:	b3078793          	addi	a5,a5,-1232 # 50206e80 <ready_queue>
    50202358:	6b9c                	ld	a5,16(a5)
    5020235a:	faf43023          	sd	a5,-96(s0)
    5020235e:	4561                	li	a0,24
    50202360:	1cc000ef          	jal	ra,5020252c <kmalloc>
    50202364:	f8a43c23          	sd	a0,-104(s0)
    50202368:	00003797          	auipc	a5,0x3
    5020236c:	99078793          	addi	a5,a5,-1648 # 50204cf8 <process_id>
    50202370:	4398                	lw	a4,0(a5)
    50202372:	f9843783          	ld	a5,-104(s0)
    50202376:	c398                	sw	a4,0(a5)
    50202378:	f9843783          	ld	a5,-104(s0)
    5020237c:	fa043703          	ld	a4,-96(s0)
    50202380:	e798                	sd	a4,8(a5)
    50202382:	fa043783          	ld	a5,-96(s0)
    50202386:	6b98                	ld	a4,16(a5)
    50202388:	f9843783          	ld	a5,-104(s0)
    5020238c:	eb98                	sd	a4,16(a5)
    5020238e:	fa043783          	ld	a5,-96(s0)
    50202392:	6b9c                	ld	a5,16(a5)
    50202394:	f9843703          	ld	a4,-104(s0)
    50202398:	e798                	sd	a4,8(a5)
    5020239a:	fa043783          	ld	a5,-96(s0)
    5020239e:	f9843703          	ld	a4,-104(s0)
    502023a2:	eb98                	sd	a4,16(a5)
    502023a4:	00005797          	auipc	a5,0x5
    502023a8:	adc78793          	addi	a5,a5,-1316 # 50206e80 <ready_queue>
    502023ac:	439c                	lw	a5,0(a5)
    502023ae:	2785                	addiw	a5,a5,1
    502023b0:	0007871b          	sext.w	a4,a5
    502023b4:	00005797          	auipc	a5,0x5
    502023b8:	acc78793          	addi	a5,a5,-1332 # 50206e80 <ready_queue>
    502023bc:	c398                	sw	a4,0(a5)
    502023be:	00003797          	auipc	a5,0x3
    502023c2:	93a78793          	addi	a5,a5,-1734 # 50204cf8 <process_id>
    502023c6:	439c                	lw	a5,0(a5)
    502023c8:	0017871b          	addiw	a4,a5,1
    502023cc:	0007069b          	sext.w	a3,a4
    502023d0:	00003717          	auipc	a4,0x3
    502023d4:	92870713          	addi	a4,a4,-1752 # 50204cf8 <process_id>
    502023d8:	c314                	sw	a3,0(a4)
    502023da:	853e                	mv	a0,a5
    502023dc:	70a6                	ld	ra,104(sp)
    502023de:	7406                	ld	s0,96(sp)
    502023e0:	6165                	addi	sp,sp,112
    502023e2:	8082                	ret

00000000502023e4 <do_prior>:
    502023e4:	1101                	addi	sp,sp,-32
    502023e6:	ec22                	sd	s0,24(sp)
    502023e8:	1000                	addi	s0,sp,32
    502023ea:	87aa                	mv	a5,a0
    502023ec:	fef42623          	sw	a5,-20(s0)
    502023f0:	fec42783          	lw	a5,-20(s0)
    502023f4:	2785                	addiw	a5,a5,1
    502023f6:	0007871b          	sext.w	a4,a5
    502023fa:	000257b7          	lui	a5,0x25
    502023fe:	9f07879b          	addiw	a5,a5,-1552
    50202402:	02f707bb          	mulw	a5,a4,a5
    50202406:	2781                	sext.w	a5,a5
    50202408:	86be                	mv	a3,a5
    5020240a:	00003797          	auipc	a5,0x3
    5020240e:	8e678793          	addi	a5,a5,-1818 # 50204cf0 <timer>
    50202412:	6398                	ld	a4,0(a5)
    50202414:	00005797          	auipc	a5,0x5
    50202418:	a8478793          	addi	a5,a5,-1404 # 50206e98 <current_running>
    5020241c:	639c                	ld	a5,0(a5)
    5020241e:	9736                	add	a4,a4,a3
    50202420:	fb98                	sd	a4,48(a5)
    50202422:	0001                	nop
    50202424:	6462                	ld	s0,24(sp)
    50202426:	6105                	addi	sp,sp,32
    50202428:	8082                	ret

000000005020242a <get_ticks>:
    5020242a:	1141                	addi	sp,sp,-16
    5020242c:	e422                	sd	s0,8(sp)
    5020242e:	0800                	addi	s0,sp,16
    50202430:	c0102773          	rdtime	a4
    50202434:	85018793          	addi	a5,gp,-1968 # 50204d38 <time_elapsed>
    50202438:	e398                	sd	a4,0(a5)
    5020243a:	85018793          	addi	a5,gp,-1968 # 50204d38 <time_elapsed>
    5020243e:	639c                	ld	a5,0(a5)
    50202440:	853e                	mv	a0,a5
    50202442:	6422                	ld	s0,8(sp)
    50202444:	0141                	addi	sp,sp,16
    50202446:	8082                	ret

0000000050202448 <get_timer>:
    50202448:	1141                	addi	sp,sp,-16
    5020244a:	e406                	sd	ra,8(sp)
    5020244c:	e022                	sd	s0,0(sp)
    5020244e:	0800                	addi	s0,sp,16
    50202450:	fdbff0ef          	jal	ra,5020242a <get_ticks>
    50202454:	872a                	mv	a4,a0
    50202456:	85818793          	addi	a5,gp,-1960 # 50204d40 <time_base>
    5020245a:	439c                	lw	a5,0(a5)
    5020245c:	1782                	slli	a5,a5,0x20
    5020245e:	9381                	srli	a5,a5,0x20
    50202460:	02f757b3          	divu	a5,a4,a5
    50202464:	853e                	mv	a0,a5
    50202466:	60a2                	ld	ra,8(sp)
    50202468:	6402                	ld	s0,0(sp)
    5020246a:	0141                	addi	sp,sp,16
    5020246c:	8082                	ret

000000005020246e <get_time_base>:
    5020246e:	1141                	addi	sp,sp,-16
    50202470:	e422                	sd	s0,8(sp)
    50202472:	0800                	addi	s0,sp,16
    50202474:	85818793          	addi	a5,gp,-1960 # 50204d40 <time_base>
    50202478:	439c                	lw	a5,0(a5)
    5020247a:	1782                	slli	a5,a5,0x20
    5020247c:	9381                	srli	a5,a5,0x20
    5020247e:	853e                	mv	a0,a5
    50202480:	6422                	ld	s0,8(sp)
    50202482:	0141                	addi	sp,sp,16
    50202484:	8082                	ret

0000000050202486 <latency>:
    50202486:	7179                	addi	sp,sp,-48
    50202488:	f406                	sd	ra,40(sp)
    5020248a:	f022                	sd	s0,32(sp)
    5020248c:	1800                	addi	s0,sp,48
    5020248e:	fca43c23          	sd	a0,-40(s0)
    50202492:	fb7ff0ef          	jal	ra,50202448 <get_timer>
    50202496:	fea43423          	sd	a0,-24(s0)
    5020249a:	0001                	nop
    5020249c:	fadff0ef          	jal	ra,50202448 <get_timer>
    502024a0:	872a                	mv	a4,a0
    502024a2:	fe843783          	ld	a5,-24(s0)
    502024a6:	40f707b3          	sub	a5,a4,a5
    502024aa:	fd843703          	ld	a4,-40(s0)
    502024ae:	fee7e7e3          	bltu	a5,a4,5020249c <latency+0x16>
    502024b2:	0001                	nop
    502024b4:	70a2                	ld	ra,40(sp)
    502024b6:	7402                	ld	s0,32(sp)
    502024b8:	6145                	addi	sp,sp,48
    502024ba:	8082                	ret

00000000502024bc <get_walltime>:
    502024bc:	1101                	addi	sp,sp,-32
    502024be:	ec06                	sd	ra,24(sp)
    502024c0:	e822                	sd	s0,16(sp)
    502024c2:	1000                	addi	s0,sp,32
    502024c4:	fea43423          	sd	a0,-24(s0)
    502024c8:	f63ff0ef          	jal	ra,5020242a <get_ticks>
    502024cc:	87aa                	mv	a5,a0
    502024ce:	0007871b          	sext.w	a4,a5
    502024d2:	fe843783          	ld	a5,-24(s0)
    502024d6:	c398                	sw	a4,0(a5)
    502024d8:	85818793          	addi	a5,gp,-1960 # 50204d40 <time_base>
    502024dc:	439c                	lw	a5,0(a5)
    502024de:	853e                	mv	a0,a5
    502024e0:	60e2                	ld	ra,24(sp)
    502024e2:	6442                	ld	s0,16(sp)
    502024e4:	6105                	addi	sp,sp,32
    502024e6:	8082                	ret

00000000502024e8 <allocPage>:
    502024e8:	7179                	addi	sp,sp,-48
    502024ea:	f422                	sd	s0,40(sp)
    502024ec:	1800                	addi	s0,sp,48
    502024ee:	87aa                	mv	a5,a0
    502024f0:	fcf42e23          	sw	a5,-36(s0)
    502024f4:	82818793          	addi	a5,gp,-2008 # 50204d10 <memCurr>
    502024f8:	6398                	ld	a4,0(a5)
    502024fa:	6785                	lui	a5,0x1
    502024fc:	17fd                	addi	a5,a5,-1
    502024fe:	973e                	add	a4,a4,a5
    50202500:	77fd                	lui	a5,0xfffff
    50202502:	8ff9                	and	a5,a5,a4
    50202504:	fef43423          	sd	a5,-24(s0)
    50202508:	fdc42783          	lw	a5,-36(s0)
    5020250c:	00c7979b          	slliw	a5,a5,0xc
    50202510:	2781                	sext.w	a5,a5
    50202512:	873e                	mv	a4,a5
    50202514:	fe843783          	ld	a5,-24(s0)
    50202518:	973e                	add	a4,a4,a5
    5020251a:	82818793          	addi	a5,gp,-2008 # 50204d10 <memCurr>
    5020251e:	e398                	sd	a4,0(a5)
    50202520:	fe843783          	ld	a5,-24(s0)
    50202524:	853e                	mv	a0,a5
    50202526:	7422                	ld	s0,40(sp)
    50202528:	6145                	addi	sp,sp,48
    5020252a:	8082                	ret

000000005020252c <kmalloc>:
    5020252c:	7179                	addi	sp,sp,-48
    5020252e:	f422                	sd	s0,40(sp)
    50202530:	1800                	addi	s0,sp,48
    50202532:	fca43c23          	sd	a0,-40(s0)
    50202536:	82818793          	addi	a5,gp,-2008 # 50204d10 <memCurr>
    5020253a:	639c                	ld	a5,0(a5)
    5020253c:	078d                	addi	a5,a5,3
    5020253e:	9bf1                	andi	a5,a5,-4
    50202540:	fef43423          	sd	a5,-24(s0)
    50202544:	fe843703          	ld	a4,-24(s0)
    50202548:	fd843783          	ld	a5,-40(s0)
    5020254c:	973e                	add	a4,a4,a5
    5020254e:	82818793          	addi	a5,gp,-2008 # 50204d10 <memCurr>
    50202552:	e398                	sd	a4,0(a5)
    50202554:	fe843783          	ld	a5,-24(s0)
    50202558:	853e                	mv	a0,a5
    5020255a:	7422                	ld	s0,40(sp)
    5020255c:	6145                	addi	sp,sp,48
    5020255e:	8082                	ret

0000000050202560 <handle_syscall>:
    50202560:	7179                	addi	sp,sp,-48
    50202562:	f406                	sd	ra,40(sp)
    50202564:	f022                	sd	s0,32(sp)
    50202566:	1800                	addi	s0,sp,48
    50202568:	fea43423          	sd	a0,-24(s0)
    5020256c:	feb43023          	sd	a1,-32(s0)
    50202570:	fcc43c23          	sd	a2,-40(s0)
    50202574:	fe843783          	ld	a5,-24(s0)
    50202578:	1087b783          	ld	a5,264(a5) # fffffffffffff108 <__BSS_END__+0xffffffffafdf7bd0>
    5020257c:	00478713          	addi	a4,a5,4
    50202580:	fe843783          	ld	a5,-24(s0)
    50202584:	10e7b423          	sd	a4,264(a5)
    50202588:	fe843783          	ld	a5,-24(s0)
    5020258c:	67dc                	ld	a5,136(a5)
    5020258e:	00005717          	auipc	a4,0x5
    50202592:	daa70713          	addi	a4,a4,-598 # 50207338 <syscall>
    50202596:	078e                	slli	a5,a5,0x3
    50202598:	97ba                	add	a5,a5,a4
    5020259a:	0007b803          	ld	a6,0(a5)
    5020259e:	fe843783          	ld	a5,-24(s0)
    502025a2:	6bb8                	ld	a4,80(a5)
    502025a4:	fe843783          	ld	a5,-24(s0)
    502025a8:	6fb4                	ld	a3,88(a5)
    502025aa:	fe843783          	ld	a5,-24(s0)
    502025ae:	73bc                	ld	a5,96(a5)
    502025b0:	863e                	mv	a2,a5
    502025b2:	85b6                	mv	a1,a3
    502025b4:	853a                	mv	a0,a4
    502025b6:	9802                	jalr	a6
    502025b8:	87aa                	mv	a5,a0
    502025ba:	873e                	mv	a4,a5
    502025bc:	fe843783          	ld	a5,-24(s0)
    502025c0:	ebb8                	sd	a4,80(a5)
    502025c2:	0001                	nop
    502025c4:	70a2                	ld	ra,40(sp)
    502025c6:	7402                	ld	s0,32(sp)
    502025c8:	6145                	addi	sp,sp,48
    502025ca:	8082                	ret

00000000502025cc <kstrlen>:
    502025cc:	7179                	addi	sp,sp,-48
    502025ce:	f422                	sd	s0,40(sp)
    502025d0:	1800                	addi	s0,sp,48
    502025d2:	fca43c23          	sd	a0,-40(s0)
    502025d6:	fe042623          	sw	zero,-20(s0)
    502025da:	a031                	j	502025e6 <kstrlen+0x1a>
    502025dc:	fec42783          	lw	a5,-20(s0)
    502025e0:	2785                	addiw	a5,a5,1
    502025e2:	fef42623          	sw	a5,-20(s0)
    502025e6:	fec42783          	lw	a5,-20(s0)
    502025ea:	fd843703          	ld	a4,-40(s0)
    502025ee:	97ba                	add	a5,a5,a4
    502025f0:	0007c783          	lbu	a5,0(a5)
    502025f4:	f7e5                	bnez	a5,502025dc <kstrlen+0x10>
    502025f6:	fec42783          	lw	a5,-20(s0)
    502025fa:	853e                	mv	a0,a5
    502025fc:	7422                	ld	s0,40(sp)
    502025fe:	6145                	addi	sp,sp,48
    50202600:	8082                	ret

0000000050202602 <kmemcpy>:
    50202602:	7179                	addi	sp,sp,-48
    50202604:	f422                	sd	s0,40(sp)
    50202606:	1800                	addi	s0,sp,48
    50202608:	fea43423          	sd	a0,-24(s0)
    5020260c:	feb43023          	sd	a1,-32(s0)
    50202610:	87b2                	mv	a5,a2
    50202612:	fcf42e23          	sw	a5,-36(s0)
    50202616:	a035                	j	50202642 <kmemcpy+0x40>
    50202618:	fe043703          	ld	a4,-32(s0)
    5020261c:	00170793          	addi	a5,a4,1
    50202620:	fef43023          	sd	a5,-32(s0)
    50202624:	fe843783          	ld	a5,-24(s0)
    50202628:	00178693          	addi	a3,a5,1
    5020262c:	fed43423          	sd	a3,-24(s0)
    50202630:	00074703          	lbu	a4,0(a4)
    50202634:	00e78023          	sb	a4,0(a5)
    50202638:	fdc42783          	lw	a5,-36(s0)
    5020263c:	37fd                	addiw	a5,a5,-1
    5020263e:	fcf42e23          	sw	a5,-36(s0)
    50202642:	fdc42783          	lw	a5,-36(s0)
    50202646:	2781                	sext.w	a5,a5
    50202648:	fbe1                	bnez	a5,50202618 <kmemcpy+0x16>
    5020264a:	0001                	nop
    5020264c:	0001                	nop
    5020264e:	7422                	ld	s0,40(sp)
    50202650:	6145                	addi	sp,sp,48
    50202652:	8082                	ret

0000000050202654 <kmemset>:
    50202654:	7179                	addi	sp,sp,-48
    50202656:	f422                	sd	s0,40(sp)
    50202658:	1800                	addi	s0,sp,48
    5020265a:	fca43c23          	sd	a0,-40(s0)
    5020265e:	87ae                	mv	a5,a1
    50202660:	8732                	mv	a4,a2
    50202662:	fcf40ba3          	sb	a5,-41(s0)
    50202666:	87ba                	mv	a5,a4
    50202668:	fcf42823          	sw	a5,-48(s0)
    5020266c:	fd843783          	ld	a5,-40(s0)
    50202670:	fef43423          	sd	a5,-24(s0)
    50202674:	a005                	j	50202694 <kmemset+0x40>
    50202676:	fe843783          	ld	a5,-24(s0)
    5020267a:	00178713          	addi	a4,a5,1
    5020267e:	fee43423          	sd	a4,-24(s0)
    50202682:	fd744703          	lbu	a4,-41(s0)
    50202686:	00e78023          	sb	a4,0(a5)
    5020268a:	fd042783          	lw	a5,-48(s0)
    5020268e:	37fd                	addiw	a5,a5,-1
    50202690:	fcf42823          	sw	a5,-48(s0)
    50202694:	fd042783          	lw	a5,-48(s0)
    50202698:	2781                	sext.w	a5,a5
    5020269a:	fff1                	bnez	a5,50202676 <kmemset+0x22>
    5020269c:	0001                	nop
    5020269e:	0001                	nop
    502026a0:	7422                	ld	s0,40(sp)
    502026a2:	6145                	addi	sp,sp,48
    502026a4:	8082                	ret

00000000502026a6 <kbzero>:
    502026a6:	1101                	addi	sp,sp,-32
    502026a8:	ec06                	sd	ra,24(sp)
    502026aa:	e822                	sd	s0,16(sp)
    502026ac:	1000                	addi	s0,sp,32
    502026ae:	fea43423          	sd	a0,-24(s0)
    502026b2:	87ae                	mv	a5,a1
    502026b4:	fef42223          	sw	a5,-28(s0)
    502026b8:	fe442783          	lw	a5,-28(s0)
    502026bc:	863e                	mv	a2,a5
    502026be:	4581                	li	a1,0
    502026c0:	fe843503          	ld	a0,-24(s0)
    502026c4:	f91ff0ef          	jal	ra,50202654 <kmemset>
    502026c8:	0001                	nop
    502026ca:	60e2                	ld	ra,24(sp)
    502026cc:	6442                	ld	s0,16(sp)
    502026ce:	6105                	addi	sp,sp,32
    502026d0:	8082                	ret

00000000502026d2 <kstrcmp>:
    502026d2:	1101                	addi	sp,sp,-32
    502026d4:	ec22                	sd	s0,24(sp)
    502026d6:	1000                	addi	s0,sp,32
    502026d8:	fea43423          	sd	a0,-24(s0)
    502026dc:	feb43023          	sd	a1,-32(s0)
    502026e0:	a0a1                	j	50202728 <kstrcmp+0x56>
    502026e2:	fe843783          	ld	a5,-24(s0)
    502026e6:	0007c703          	lbu	a4,0(a5)
    502026ea:	fe043783          	ld	a5,-32(s0)
    502026ee:	0007c783          	lbu	a5,0(a5)
    502026f2:	02f70163          	beq	a4,a5,50202714 <kstrcmp+0x42>
    502026f6:	fe843783          	ld	a5,-24(s0)
    502026fa:	0007c783          	lbu	a5,0(a5)
    502026fe:	0007871b          	sext.w	a4,a5
    50202702:	fe043783          	ld	a5,-32(s0)
    50202706:	0007c783          	lbu	a5,0(a5)
    5020270a:	2781                	sext.w	a5,a5
    5020270c:	40f707bb          	subw	a5,a4,a5
    50202710:	2781                	sext.w	a5,a5
    50202712:	a099                	j	50202758 <kstrcmp+0x86>
    50202714:	fe843783          	ld	a5,-24(s0)
    50202718:	0785                	addi	a5,a5,1
    5020271a:	fef43423          	sd	a5,-24(s0)
    5020271e:	fe043783          	ld	a5,-32(s0)
    50202722:	0785                	addi	a5,a5,1
    50202724:	fef43023          	sd	a5,-32(s0)
    50202728:	fe843783          	ld	a5,-24(s0)
    5020272c:	0007c783          	lbu	a5,0(a5)
    50202730:	c791                	beqz	a5,5020273c <kstrcmp+0x6a>
    50202732:	fe043783          	ld	a5,-32(s0)
    50202736:	0007c783          	lbu	a5,0(a5)
    5020273a:	f7c5                	bnez	a5,502026e2 <kstrcmp+0x10>
    5020273c:	fe843783          	ld	a5,-24(s0)
    50202740:	0007c783          	lbu	a5,0(a5)
    50202744:	0007871b          	sext.w	a4,a5
    50202748:	fe043783          	ld	a5,-32(s0)
    5020274c:	0007c783          	lbu	a5,0(a5)
    50202750:	2781                	sext.w	a5,a5
    50202752:	40f707bb          	subw	a5,a4,a5
    50202756:	2781                	sext.w	a5,a5
    50202758:	853e                	mv	a0,a5
    5020275a:	6462                	ld	s0,24(sp)
    5020275c:	6105                	addi	sp,sp,32
    5020275e:	8082                	ret

0000000050202760 <kstrcpy>:
    50202760:	7179                	addi	sp,sp,-48
    50202762:	f422                	sd	s0,40(sp)
    50202764:	1800                	addi	s0,sp,48
    50202766:	fca43c23          	sd	a0,-40(s0)
    5020276a:	fcb43823          	sd	a1,-48(s0)
    5020276e:	fd843783          	ld	a5,-40(s0)
    50202772:	fef43423          	sd	a5,-24(s0)
    50202776:	a00d                	j	50202798 <kstrcpy+0x38>
    50202778:	fd043703          	ld	a4,-48(s0)
    5020277c:	00170793          	addi	a5,a4,1
    50202780:	fcf43823          	sd	a5,-48(s0)
    50202784:	fd843783          	ld	a5,-40(s0)
    50202788:	00178693          	addi	a3,a5,1
    5020278c:	fcd43c23          	sd	a3,-40(s0)
    50202790:	00074703          	lbu	a4,0(a4)
    50202794:	00e78023          	sb	a4,0(a5)
    50202798:	fd043783          	ld	a5,-48(s0)
    5020279c:	0007c783          	lbu	a5,0(a5)
    502027a0:	ffe1                	bnez	a5,50202778 <kstrcpy+0x18>
    502027a2:	fd843783          	ld	a5,-40(s0)
    502027a6:	00078023          	sb	zero,0(a5)
    502027aa:	fe843783          	ld	a5,-24(s0)
    502027ae:	853e                	mv	a0,a5
    502027b0:	7422                	ld	s0,40(sp)
    502027b2:	6145                	addi	sp,sp,48
    502027b4:	8082                	ret

00000000502027b6 <kstrcat>:
    502027b6:	7179                	addi	sp,sp,-48
    502027b8:	f422                	sd	s0,40(sp)
    502027ba:	1800                	addi	s0,sp,48
    502027bc:	fca43c23          	sd	a0,-40(s0)
    502027c0:	fcb43823          	sd	a1,-48(s0)
    502027c4:	fd843783          	ld	a5,-40(s0)
    502027c8:	fef43423          	sd	a5,-24(s0)
    502027cc:	a031                	j	502027d8 <kstrcat+0x22>
    502027ce:	fd843783          	ld	a5,-40(s0)
    502027d2:	0785                	addi	a5,a5,1
    502027d4:	fcf43c23          	sd	a5,-40(s0)
    502027d8:	fd843783          	ld	a5,-40(s0)
    502027dc:	0007c783          	lbu	a5,0(a5)
    502027e0:	f7fd                	bnez	a5,502027ce <kstrcat+0x18>
    502027e2:	a00d                	j	50202804 <kstrcat+0x4e>
    502027e4:	fd043703          	ld	a4,-48(s0)
    502027e8:	00170793          	addi	a5,a4,1
    502027ec:	fcf43823          	sd	a5,-48(s0)
    502027f0:	fd843783          	ld	a5,-40(s0)
    502027f4:	00178693          	addi	a3,a5,1
    502027f8:	fcd43c23          	sd	a3,-40(s0)
    502027fc:	00074703          	lbu	a4,0(a4)
    50202800:	00e78023          	sb	a4,0(a5)
    50202804:	fd043783          	ld	a5,-48(s0)
    50202808:	0007c783          	lbu	a5,0(a5)
    5020280c:	ffe1                	bnez	a5,502027e4 <kstrcat+0x2e>
    5020280e:	fd843783          	ld	a5,-40(s0)
    50202812:	00078023          	sb	zero,0(a5)
    50202816:	fe843783          	ld	a5,-24(s0)
    5020281a:	853e                	mv	a0,a5
    5020281c:	7422                	ld	s0,40(sp)
    5020281e:	6145                	addi	sp,sp,48
    50202820:	8082                	ret

0000000050202822 <assert_supervisor_mode>:
    50202822:	1141                	addi	sp,sp,-16
    50202824:	e422                	sd	s0,8(sp)
    50202826:	0800                	addi	s0,sp,16
    50202828:	14002073          	csrr	zero,sscratch
    5020282c:	0001                	nop
    5020282e:	6422                	ld	s0,8(sp)
    50202830:	0141                	addi	sp,sp,16
    50202832:	8082                	ret

0000000050202834 <mini_strlen>:
    50202834:	7179                	addi	sp,sp,-48
    50202836:	f422                	sd	s0,40(sp)
    50202838:	1800                	addi	s0,sp,48
    5020283a:	fca43c23          	sd	a0,-40(s0)
    5020283e:	fe042623          	sw	zero,-20(s0)
    50202842:	a031                	j	5020284e <mini_strlen+0x1a>
    50202844:	fec42783          	lw	a5,-20(s0)
    50202848:	2785                	addiw	a5,a5,1
    5020284a:	fef42623          	sw	a5,-20(s0)
    5020284e:	fec46783          	lwu	a5,-20(s0)
    50202852:	fd843703          	ld	a4,-40(s0)
    50202856:	97ba                	add	a5,a5,a4
    50202858:	0007c783          	lbu	a5,0(a5)
    5020285c:	f7e5                	bnez	a5,50202844 <mini_strlen+0x10>
    5020285e:	fec42783          	lw	a5,-20(s0)
    50202862:	853e                	mv	a0,a5
    50202864:	7422                	ld	s0,40(sp)
    50202866:	6145                	addi	sp,sp,48
    50202868:	8082                	ret

000000005020286a <mini_itoa>:
    5020286a:	715d                	addi	sp,sp,-80
    5020286c:	e4a2                	sd	s0,72(sp)
    5020286e:	0880                	addi	s0,sp,80
    50202870:	fca43423          	sd	a0,-56(s0)
    50202874:	fae43823          	sd	a4,-80(s0)
    50202878:	873e                	mv	a4,a5
    5020287a:	87ae                	mv	a5,a1
    5020287c:	fcf42223          	sw	a5,-60(s0)
    50202880:	87b2                	mv	a5,a2
    50202882:	fcf42023          	sw	a5,-64(s0)
    50202886:	87b6                	mv	a5,a3
    50202888:	faf42e23          	sw	a5,-68(s0)
    5020288c:	87ba                	mv	a5,a4
    5020288e:	faf42c23          	sw	a5,-72(s0)
    50202892:	fb043783          	ld	a5,-80(s0)
    50202896:	fef43423          	sd	a5,-24(s0)
    5020289a:	fe042223          	sw	zero,-28(s0)
    5020289e:	fc442783          	lw	a5,-60(s0)
    502028a2:	0007871b          	sext.w	a4,a5
    502028a6:	47c1                	li	a5,16
    502028a8:	00e7f463          	bgeu	a5,a4,502028b0 <mini_itoa+0x46>
    502028ac:	4781                	li	a5,0
    502028ae:	a255                	j	50202a52 <mini_itoa+0x1e8>
    502028b0:	fc843783          	ld	a5,-56(s0)
    502028b4:	0007df63          	bgez	a5,502028d2 <mini_itoa+0x68>
    502028b8:	fbc42783          	lw	a5,-68(s0)
    502028bc:	2781                	sext.w	a5,a5
    502028be:	eb91                	bnez	a5,502028d2 <mini_itoa+0x68>
    502028c0:	4785                	li	a5,1
    502028c2:	fef42223          	sw	a5,-28(s0)
    502028c6:	fc843783          	ld	a5,-56(s0)
    502028ca:	40f007b3          	neg	a5,a5
    502028ce:	fcf43423          	sd	a5,-56(s0)
    502028d2:	fc446783          	lwu	a5,-60(s0)
    502028d6:	fc843703          	ld	a4,-56(s0)
    502028da:	02f767b3          	rem	a5,a4,a5
    502028de:	fcf42e23          	sw	a5,-36(s0)
    502028e2:	fdc42783          	lw	a5,-36(s0)
    502028e6:	0007871b          	sext.w	a4,a5
    502028ea:	47a5                	li	a5,9
    502028ec:	00e7cb63          	blt	a5,a4,50202902 <mini_itoa+0x98>
    502028f0:	fdc42783          	lw	a5,-36(s0)
    502028f4:	0ff7f793          	andi	a5,a5,255
    502028f8:	0307879b          	addiw	a5,a5,48
    502028fc:	0ff7f713          	andi	a4,a5,255
    50202900:	a025                	j	50202928 <mini_itoa+0xbe>
    50202902:	fc042783          	lw	a5,-64(s0)
    50202906:	2781                	sext.w	a5,a5
    50202908:	c781                	beqz	a5,50202910 <mini_itoa+0xa6>
    5020290a:	04100793          	li	a5,65
    5020290e:	a019                	j	50202914 <mini_itoa+0xaa>
    50202910:	06100793          	li	a5,97
    50202914:	fdc42703          	lw	a4,-36(s0)
    50202918:	0ff77713          	andi	a4,a4,255
    5020291c:	9fb9                	addw	a5,a5,a4
    5020291e:	0ff7f793          	andi	a5,a5,255
    50202922:	37d9                	addiw	a5,a5,-10
    50202924:	0ff7f713          	andi	a4,a5,255
    50202928:	fe843783          	ld	a5,-24(s0)
    5020292c:	00178693          	addi	a3,a5,1
    50202930:	fed43423          	sd	a3,-24(s0)
    50202934:	00e78023          	sb	a4,0(a5)
    50202938:	fc446783          	lwu	a5,-60(s0)
    5020293c:	fc843703          	ld	a4,-56(s0)
    50202940:	02f747b3          	div	a5,a4,a5
    50202944:	fcf43423          	sd	a5,-56(s0)
    50202948:	fc843783          	ld	a5,-56(s0)
    5020294c:	f8f043e3          	bgtz	a5,502028d2 <mini_itoa+0x68>
    50202950:	fe843703          	ld	a4,-24(s0)
    50202954:	fb043783          	ld	a5,-80(s0)
    50202958:	40f707b3          	sub	a5,a4,a5
    5020295c:	fef42023          	sw	a5,-32(s0)
    50202960:	a005                	j	50202980 <mini_itoa+0x116>
    50202962:	fe843783          	ld	a5,-24(s0)
    50202966:	00178713          	addi	a4,a5,1
    5020296a:	fee43423          	sd	a4,-24(s0)
    5020296e:	03000713          	li	a4,48
    50202972:	00e78023          	sb	a4,0(a5)
    50202976:	fe042783          	lw	a5,-32(s0)
    5020297a:	2785                	addiw	a5,a5,1
    5020297c:	fef42023          	sw	a5,-32(s0)
    50202980:	fe042703          	lw	a4,-32(s0)
    50202984:	fb842783          	lw	a5,-72(s0)
    50202988:	2701                	sext.w	a4,a4
    5020298a:	2781                	sext.w	a5,a5
    5020298c:	fcf76be3          	bltu	a4,a5,50202962 <mini_itoa+0xf8>
    50202990:	fe442783          	lw	a5,-28(s0)
    50202994:	2781                	sext.w	a5,a5
    50202996:	cb99                	beqz	a5,502029ac <mini_itoa+0x142>
    50202998:	fe843783          	ld	a5,-24(s0)
    5020299c:	00178713          	addi	a4,a5,1
    502029a0:	fee43423          	sd	a4,-24(s0)
    502029a4:	02d00713          	li	a4,45
    502029a8:	00e78023          	sb	a4,0(a5)
    502029ac:	fe843783          	ld	a5,-24(s0)
    502029b0:	00078023          	sb	zero,0(a5)
    502029b4:	fe843703          	ld	a4,-24(s0)
    502029b8:	fb043783          	ld	a5,-80(s0)
    502029bc:	40f707b3          	sub	a5,a4,a5
    502029c0:	fcf42c23          	sw	a5,-40(s0)
    502029c4:	fe042023          	sw	zero,-32(s0)
    502029c8:	a885                	j	50202a38 <mini_itoa+0x1ce>
    502029ca:	fe046783          	lwu	a5,-32(s0)
    502029ce:	fb043703          	ld	a4,-80(s0)
    502029d2:	97ba                	add	a5,a5,a4
    502029d4:	0007c783          	lbu	a5,0(a5)
    502029d8:	fcf40ba3          	sb	a5,-41(s0)
    502029dc:	fd842703          	lw	a4,-40(s0)
    502029e0:	fe042783          	lw	a5,-32(s0)
    502029e4:	40f707bb          	subw	a5,a4,a5
    502029e8:	2781                	sext.w	a5,a5
    502029ea:	37fd                	addiw	a5,a5,-1
    502029ec:	2781                	sext.w	a5,a5
    502029ee:	1782                	slli	a5,a5,0x20
    502029f0:	9381                	srli	a5,a5,0x20
    502029f2:	fb043703          	ld	a4,-80(s0)
    502029f6:	973e                	add	a4,a4,a5
    502029f8:	fe046783          	lwu	a5,-32(s0)
    502029fc:	fb043683          	ld	a3,-80(s0)
    50202a00:	97b6                	add	a5,a5,a3
    50202a02:	00074703          	lbu	a4,0(a4)
    50202a06:	00e78023          	sb	a4,0(a5)
    50202a0a:	fd842703          	lw	a4,-40(s0)
    50202a0e:	fe042783          	lw	a5,-32(s0)
    50202a12:	40f707bb          	subw	a5,a4,a5
    50202a16:	2781                	sext.w	a5,a5
    50202a18:	37fd                	addiw	a5,a5,-1
    50202a1a:	2781                	sext.w	a5,a5
    50202a1c:	1782                	slli	a5,a5,0x20
    50202a1e:	9381                	srli	a5,a5,0x20
    50202a20:	fb043703          	ld	a4,-80(s0)
    50202a24:	97ba                	add	a5,a5,a4
    50202a26:	fd744703          	lbu	a4,-41(s0)
    50202a2a:	00e78023          	sb	a4,0(a5)
    50202a2e:	fe042783          	lw	a5,-32(s0)
    50202a32:	2785                	addiw	a5,a5,1
    50202a34:	fef42023          	sw	a5,-32(s0)
    50202a38:	fd842783          	lw	a5,-40(s0)
    50202a3c:	0017d79b          	srliw	a5,a5,0x1
    50202a40:	0007871b          	sext.w	a4,a5
    50202a44:	fe042783          	lw	a5,-32(s0)
    50202a48:	2781                	sext.w	a5,a5
    50202a4a:	f8e7e0e3          	bltu	a5,a4,502029ca <mini_itoa+0x160>
    50202a4e:	fd842783          	lw	a5,-40(s0)
    50202a52:	853e                	mv	a0,a5
    50202a54:	6426                	ld	s0,72(sp)
    50202a56:	6161                	addi	sp,sp,80
    50202a58:	8082                	ret

0000000050202a5a <_putc>:
    50202a5a:	1101                	addi	sp,sp,-32
    50202a5c:	ec22                	sd	s0,24(sp)
    50202a5e:	1000                	addi	s0,sp,32
    50202a60:	87aa                	mv	a5,a0
    50202a62:	feb43023          	sd	a1,-32(s0)
    50202a66:	fef42623          	sw	a5,-20(s0)
    50202a6a:	fe043783          	ld	a5,-32(s0)
    50202a6e:	6798                	ld	a4,8(a5)
    50202a70:	fe043783          	ld	a5,-32(s0)
    50202a74:	639c                	ld	a5,0(a5)
    50202a76:	40f707b3          	sub	a5,a4,a5
    50202a7a:	2781                	sext.w	a5,a5
    50202a7c:	2785                	addiw	a5,a5,1
    50202a7e:	0007871b          	sext.w	a4,a5
    50202a82:	fe043783          	ld	a5,-32(s0)
    50202a86:	4b9c                	lw	a5,16(a5)
    50202a88:	00f76463          	bltu	a4,a5,50202a90 <_putc+0x36>
    50202a8c:	4781                	li	a5,0
    50202a8e:	a02d                	j	50202ab8 <_putc+0x5e>
    50202a90:	fe043783          	ld	a5,-32(s0)
    50202a94:	679c                	ld	a5,8(a5)
    50202a96:	00178693          	addi	a3,a5,1
    50202a9a:	fe043703          	ld	a4,-32(s0)
    50202a9e:	e714                	sd	a3,8(a4)
    50202aa0:	fec42703          	lw	a4,-20(s0)
    50202aa4:	0ff77713          	andi	a4,a4,255
    50202aa8:	00e78023          	sb	a4,0(a5)
    50202aac:	fe043783          	ld	a5,-32(s0)
    50202ab0:	679c                	ld	a5,8(a5)
    50202ab2:	00078023          	sb	zero,0(a5)
    50202ab6:	4785                	li	a5,1
    50202ab8:	853e                	mv	a0,a5
    50202aba:	6462                	ld	s0,24(sp)
    50202abc:	6105                	addi	sp,sp,32
    50202abe:	8082                	ret

0000000050202ac0 <_puts>:
    50202ac0:	7139                	addi	sp,sp,-64
    50202ac2:	fc22                	sd	s0,56(sp)
    50202ac4:	0080                	addi	s0,sp,64
    50202ac6:	fca43c23          	sd	a0,-40(s0)
    50202aca:	87ae                	mv	a5,a1
    50202acc:	fcc43423          	sd	a2,-56(s0)
    50202ad0:	fcf42a23          	sw	a5,-44(s0)
    50202ad4:	fc843783          	ld	a5,-56(s0)
    50202ad8:	4b9c                	lw	a5,16(a5)
    50202ada:	02079713          	slli	a4,a5,0x20
    50202ade:	9301                	srli	a4,a4,0x20
    50202ae0:	fc843783          	ld	a5,-56(s0)
    50202ae4:	6794                	ld	a3,8(a5)
    50202ae6:	fc843783          	ld	a5,-56(s0)
    50202aea:	639c                	ld	a5,0(a5)
    50202aec:	40f687b3          	sub	a5,a3,a5
    50202af0:	8f1d                	sub	a4,a4,a5
    50202af2:	fd446783          	lwu	a5,-44(s0)
    50202af6:	02e7c463          	blt	a5,a4,50202b1e <_puts+0x5e>
    50202afa:	fc843783          	ld	a5,-56(s0)
    50202afe:	4b98                	lw	a4,16(a5)
    50202b00:	fc843783          	ld	a5,-56(s0)
    50202b04:	6794                	ld	a3,8(a5)
    50202b06:	fc843783          	ld	a5,-56(s0)
    50202b0a:	639c                	ld	a5,0(a5)
    50202b0c:	40f687b3          	sub	a5,a3,a5
    50202b10:	2781                	sext.w	a5,a5
    50202b12:	40f707bb          	subw	a5,a4,a5
    50202b16:	2781                	sext.w	a5,a5
    50202b18:	37fd                	addiw	a5,a5,-1
    50202b1a:	fcf42a23          	sw	a5,-44(s0)
    50202b1e:	fe042623          	sw	zero,-20(s0)
    50202b22:	a03d                	j	50202b50 <_puts+0x90>
    50202b24:	fec46783          	lwu	a5,-20(s0)
    50202b28:	fd843703          	ld	a4,-40(s0)
    50202b2c:	973e                	add	a4,a4,a5
    50202b2e:	fc843783          	ld	a5,-56(s0)
    50202b32:	679c                	ld	a5,8(a5)
    50202b34:	00178613          	addi	a2,a5,1
    50202b38:	fc843683          	ld	a3,-56(s0)
    50202b3c:	e690                	sd	a2,8(a3)
    50202b3e:	00074703          	lbu	a4,0(a4)
    50202b42:	00e78023          	sb	a4,0(a5)
    50202b46:	fec42783          	lw	a5,-20(s0)
    50202b4a:	2785                	addiw	a5,a5,1
    50202b4c:	fef42623          	sw	a5,-20(s0)
    50202b50:	fec42703          	lw	a4,-20(s0)
    50202b54:	fd442783          	lw	a5,-44(s0)
    50202b58:	2701                	sext.w	a4,a4
    50202b5a:	2781                	sext.w	a5,a5
    50202b5c:	fcf764e3          	bltu	a4,a5,50202b24 <_puts+0x64>
    50202b60:	fc843783          	ld	a5,-56(s0)
    50202b64:	679c                	ld	a5,8(a5)
    50202b66:	00078023          	sb	zero,0(a5)
    50202b6a:	fd442783          	lw	a5,-44(s0)
    50202b6e:	853e                	mv	a0,a5
    50202b70:	7462                	ld	s0,56(sp)
    50202b72:	6121                	addi	sp,sp,64
    50202b74:	8082                	ret

0000000050202b76 <mini_vsnprintf>:
    50202b76:	7119                	addi	sp,sp,-128
    50202b78:	fc86                	sd	ra,120(sp)
    50202b7a:	f8a2                	sd	s0,112(sp)
    50202b7c:	0100                	addi	s0,sp,128
    50202b7e:	f8a43c23          	sd	a0,-104(s0)
    50202b82:	87ae                	mv	a5,a1
    50202b84:	f8c43423          	sd	a2,-120(s0)
    50202b88:	f8d43023          	sd	a3,-128(s0)
    50202b8c:	f8f42a23          	sw	a5,-108(s0)
    50202b90:	f9843783          	ld	a5,-104(s0)
    50202b94:	fcf43023          	sd	a5,-64(s0)
    50202b98:	f9843783          	ld	a5,-104(s0)
    50202b9c:	fcf43423          	sd	a5,-56(s0)
    50202ba0:	f9442783          	lw	a5,-108(s0)
    50202ba4:	fcf42823          	sw	a5,-48(s0)
    50202ba8:	a4f9                	j	50202e76 <mini_vsnprintf+0x300>
    50202baa:	fc843703          	ld	a4,-56(s0)
    50202bae:	fc043783          	ld	a5,-64(s0)
    50202bb2:	40f707b3          	sub	a5,a4,a5
    50202bb6:	2781                	sext.w	a5,a5
    50202bb8:	2785                	addiw	a5,a5,1
    50202bba:	0007871b          	sext.w	a4,a5
    50202bbe:	fd042783          	lw	a5,-48(s0)
    50202bc2:	2cf77b63          	bgeu	a4,a5,50202e98 <mini_vsnprintf+0x322>
    50202bc6:	fef44783          	lbu	a5,-17(s0)
    50202bca:	0ff7f713          	andi	a4,a5,255
    50202bce:	02500793          	li	a5,37
    50202bd2:	00f70c63          	beq	a4,a5,50202bea <mini_vsnprintf+0x74>
    50202bd6:	fef44783          	lbu	a5,-17(s0)
    50202bda:	2781                	sext.w	a5,a5
    50202bdc:	fc040713          	addi	a4,s0,-64
    50202be0:	85ba                	mv	a1,a4
    50202be2:	853e                	mv	a0,a5
    50202be4:	e77ff0ef          	jal	ra,50202a5a <_putc>
    50202be8:	a479                	j	50202e76 <mini_vsnprintf+0x300>
    50202bea:	fe040723          	sb	zero,-18(s0)
    50202bee:	fe042423          	sw	zero,-24(s0)
    50202bf2:	f8843783          	ld	a5,-120(s0)
    50202bf6:	00178713          	addi	a4,a5,1
    50202bfa:	f8e43423          	sd	a4,-120(s0)
    50202bfe:	0007c783          	lbu	a5,0(a5)
    50202c02:	fef407a3          	sb	a5,-17(s0)
    50202c06:	fef44783          	lbu	a5,-17(s0)
    50202c0a:	0ff7f713          	andi	a4,a5,255
    50202c0e:	03000793          	li	a5,48
    50202c12:	06f71b63          	bne	a4,a5,50202c88 <mini_vsnprintf+0x112>
    50202c16:	a891                	j	50202c6a <mini_vsnprintf+0xf4>
    50202c18:	fef44783          	lbu	a5,-17(s0)
    50202c1c:	0ff7f793          	andi	a5,a5,255
    50202c20:	26078e63          	beqz	a5,50202e9c <mini_vsnprintf+0x326>
    50202c24:	fef44783          	lbu	a5,-17(s0)
    50202c28:	0ff7f713          	andi	a4,a5,255
    50202c2c:	02f00793          	li	a5,47
    50202c30:	04e7fc63          	bgeu	a5,a4,50202c88 <mini_vsnprintf+0x112>
    50202c34:	fef44783          	lbu	a5,-17(s0)
    50202c38:	0ff7f713          	andi	a4,a5,255
    50202c3c:	03900793          	li	a5,57
    50202c40:	04e7e463          	bltu	a5,a4,50202c88 <mini_vsnprintf+0x112>
    50202c44:	fee44703          	lbu	a4,-18(s0)
    50202c48:	87ba                	mv	a5,a4
    50202c4a:	0027979b          	slliw	a5,a5,0x2
    50202c4e:	9fb9                	addw	a5,a5,a4
    50202c50:	0017979b          	slliw	a5,a5,0x1
    50202c54:	0ff7f793          	andi	a5,a5,255
    50202c58:	fef44703          	lbu	a4,-17(s0)
    50202c5c:	9fb9                	addw	a5,a5,a4
    50202c5e:	0ff7f793          	andi	a5,a5,255
    50202c62:	fd07879b          	addiw	a5,a5,-48
    50202c66:	fef40723          	sb	a5,-18(s0)
    50202c6a:	f8843783          	ld	a5,-120(s0)
    50202c6e:	00178713          	addi	a4,a5,1
    50202c72:	f8e43423          	sd	a4,-120(s0)
    50202c76:	0007c783          	lbu	a5,0(a5)
    50202c7a:	fef407a3          	sb	a5,-17(s0)
    50202c7e:	fef44783          	lbu	a5,-17(s0)
    50202c82:	0ff7f793          	andi	a5,a5,255
    50202c86:	fbc9                	bnez	a5,50202c18 <mini_vsnprintf+0xa2>
    50202c88:	fef44783          	lbu	a5,-17(s0)
    50202c8c:	0ff7f713          	andi	a4,a5,255
    50202c90:	06c00793          	li	a5,108
    50202c94:	00f71f63          	bne	a4,a5,50202cb2 <mini_vsnprintf+0x13c>
    50202c98:	4785                	li	a5,1
    50202c9a:	fef42423          	sw	a5,-24(s0)
    50202c9e:	f8843783          	ld	a5,-120(s0)
    50202ca2:	00178713          	addi	a4,a5,1
    50202ca6:	f8e43423          	sd	a4,-120(s0)
    50202caa:	0007c783          	lbu	a5,0(a5)
    50202cae:	fef407a3          	sb	a5,-17(s0)
    50202cb2:	fef44783          	lbu	a5,-17(s0)
    50202cb6:	2781                	sext.w	a5,a5
    50202cb8:	1e078463          	beqz	a5,50202ea0 <mini_vsnprintf+0x32a>
    50202cbc:	873e                	mv	a4,a5
    50202cbe:	1a074263          	bltz	a4,50202e62 <mini_vsnprintf+0x2ec>
    50202cc2:	86be                	mv	a3,a5
    50202cc4:	07800713          	li	a4,120
    50202cc8:	18d74d63          	blt	a4,a3,50202e62 <mini_vsnprintf+0x2ec>
    50202ccc:	86be                	mv	a3,a5
    50202cce:	05800713          	li	a4,88
    50202cd2:	18e6c863          	blt	a3,a4,50202e62 <mini_vsnprintf+0x2ec>
    50202cd6:	fa87869b          	addiw	a3,a5,-88
    50202cda:	0006871b          	sext.w	a4,a3
    50202cde:	02000793          	li	a5,32
    50202ce2:	18e7e063          	bltu	a5,a4,50202e62 <mini_vsnprintf+0x2ec>
    50202ce6:	02069793          	slli	a5,a3,0x20
    50202cea:	9381                	srli	a5,a5,0x20
    50202cec:	00279713          	slli	a4,a5,0x2
    50202cf0:	00002797          	auipc	a5,0x2
    50202cf4:	88878793          	addi	a5,a5,-1912 # 50204578 <__FUNCTION__.1341+0x30>
    50202cf8:	97ba                	add	a5,a5,a4
    50202cfa:	439c                	lw	a5,0(a5)
    50202cfc:	0007871b          	sext.w	a4,a5
    50202d00:	00002797          	auipc	a5,0x2
    50202d04:	87878793          	addi	a5,a5,-1928 # 50204578 <__FUNCTION__.1341+0x30>
    50202d08:	97ba                	add	a5,a5,a4
    50202d0a:	8782                	jr	a5
    50202d0c:	4785                	li	a5,1
    50202d0e:	fef42423          	sw	a5,-24(s0)
    50202d12:	a295                	j	50202e76 <mini_vsnprintf+0x300>
    50202d14:	fe842783          	lw	a5,-24(s0)
    50202d18:	2781                	sext.w	a5,a5
    50202d1a:	ef81                	bnez	a5,50202d32 <mini_vsnprintf+0x1bc>
    50202d1c:	f8043783          	ld	a5,-128(s0)
    50202d20:	00878713          	addi	a4,a5,8
    50202d24:	f8e43023          	sd	a4,-128(s0)
    50202d28:	439c                	lw	a5,0(a5)
    50202d2a:	02079513          	slli	a0,a5,0x20
    50202d2e:	9101                	srli	a0,a0,0x20
    50202d30:	a809                	j	50202d42 <mini_vsnprintf+0x1cc>
    50202d32:	f8043783          	ld	a5,-128(s0)
    50202d36:	00878713          	addi	a4,a5,8
    50202d3a:	f8e43023          	sd	a4,-128(s0)
    50202d3e:	639c                	ld	a5,0(a5)
    50202d40:	853e                	mv	a0,a5
    50202d42:	fef44783          	lbu	a5,-17(s0)
    50202d46:	0007871b          	sext.w	a4,a5
    50202d4a:	07500793          	li	a5,117
    50202d4e:	40f707b3          	sub	a5,a4,a5
    50202d52:	0017b793          	seqz	a5,a5
    50202d56:	0ff7f793          	andi	a5,a5,255
    50202d5a:	0007869b          	sext.w	a3,a5
    50202d5e:	fee44783          	lbu	a5,-18(s0)
    50202d62:	2781                	sext.w	a5,a5
    50202d64:	fa840713          	addi	a4,s0,-88
    50202d68:	4601                	li	a2,0
    50202d6a:	45a9                	li	a1,10
    50202d6c:	affff0ef          	jal	ra,5020286a <mini_itoa>
    50202d70:	87aa                	mv	a5,a0
    50202d72:	fcf42e23          	sw	a5,-36(s0)
    50202d76:	fc040693          	addi	a3,s0,-64
    50202d7a:	fdc42703          	lw	a4,-36(s0)
    50202d7e:	fa840793          	addi	a5,s0,-88
    50202d82:	8636                	mv	a2,a3
    50202d84:	85ba                	mv	a1,a4
    50202d86:	853e                	mv	a0,a5
    50202d88:	d39ff0ef          	jal	ra,50202ac0 <_puts>
    50202d8c:	fe042423          	sw	zero,-24(s0)
    50202d90:	a0dd                	j	50202e76 <mini_vsnprintf+0x300>
    50202d92:	fe842783          	lw	a5,-24(s0)
    50202d96:	2781                	sext.w	a5,a5
    50202d98:	ef81                	bnez	a5,50202db0 <mini_vsnprintf+0x23a>
    50202d9a:	f8043783          	ld	a5,-128(s0)
    50202d9e:	00878713          	addi	a4,a5,8
    50202da2:	f8e43023          	sd	a4,-128(s0)
    50202da6:	439c                	lw	a5,0(a5)
    50202da8:	02079513          	slli	a0,a5,0x20
    50202dac:	9101                	srli	a0,a0,0x20
    50202dae:	a809                	j	50202dc0 <mini_vsnprintf+0x24a>
    50202db0:	f8043783          	ld	a5,-128(s0)
    50202db4:	00878713          	addi	a4,a5,8
    50202db8:	f8e43023          	sd	a4,-128(s0)
    50202dbc:	639c                	ld	a5,0(a5)
    50202dbe:	853e                	mv	a0,a5
    50202dc0:	fef44783          	lbu	a5,-17(s0)
    50202dc4:	0007871b          	sext.w	a4,a5
    50202dc8:	05800793          	li	a5,88
    50202dcc:	40f707b3          	sub	a5,a4,a5
    50202dd0:	0017b793          	seqz	a5,a5
    50202dd4:	0ff7f793          	andi	a5,a5,255
    50202dd8:	0007861b          	sext.w	a2,a5
    50202ddc:	fee44783          	lbu	a5,-18(s0)
    50202de0:	2781                	sext.w	a5,a5
    50202de2:	fa840713          	addi	a4,s0,-88
    50202de6:	4685                	li	a3,1
    50202de8:	45c1                	li	a1,16
    50202dea:	a81ff0ef          	jal	ra,5020286a <mini_itoa>
    50202dee:	87aa                	mv	a5,a0
    50202df0:	fcf42e23          	sw	a5,-36(s0)
    50202df4:	fc040693          	addi	a3,s0,-64
    50202df8:	fdc42703          	lw	a4,-36(s0)
    50202dfc:	fa840793          	addi	a5,s0,-88
    50202e00:	8636                	mv	a2,a3
    50202e02:	85ba                	mv	a1,a4
    50202e04:	853e                	mv	a0,a5
    50202e06:	cbbff0ef          	jal	ra,50202ac0 <_puts>
    50202e0a:	fe042423          	sw	zero,-24(s0)
    50202e0e:	a0a5                	j	50202e76 <mini_vsnprintf+0x300>
    50202e10:	f8043783          	ld	a5,-128(s0)
    50202e14:	00878713          	addi	a4,a5,8
    50202e18:	f8e43023          	sd	a4,-128(s0)
    50202e1c:	439c                	lw	a5,0(a5)
    50202e1e:	0ff7f793          	andi	a5,a5,255
    50202e22:	2781                	sext.w	a5,a5
    50202e24:	fc040713          	addi	a4,s0,-64
    50202e28:	85ba                	mv	a1,a4
    50202e2a:	853e                	mv	a0,a5
    50202e2c:	c2fff0ef          	jal	ra,50202a5a <_putc>
    50202e30:	a099                	j	50202e76 <mini_vsnprintf+0x300>
    50202e32:	f8043783          	ld	a5,-128(s0)
    50202e36:	00878713          	addi	a4,a5,8
    50202e3a:	f8e43023          	sd	a4,-128(s0)
    50202e3e:	639c                	ld	a5,0(a5)
    50202e40:	fef43023          	sd	a5,-32(s0)
    50202e44:	fe043503          	ld	a0,-32(s0)
    50202e48:	9edff0ef          	jal	ra,50202834 <mini_strlen>
    50202e4c:	87aa                	mv	a5,a0
    50202e4e:	2781                	sext.w	a5,a5
    50202e50:	fc040713          	addi	a4,s0,-64
    50202e54:	863a                	mv	a2,a4
    50202e56:	85be                	mv	a1,a5
    50202e58:	fe043503          	ld	a0,-32(s0)
    50202e5c:	c65ff0ef          	jal	ra,50202ac0 <_puts>
    50202e60:	a819                	j	50202e76 <mini_vsnprintf+0x300>
    50202e62:	fef44783          	lbu	a5,-17(s0)
    50202e66:	2781                	sext.w	a5,a5
    50202e68:	fc040713          	addi	a4,s0,-64
    50202e6c:	85ba                	mv	a1,a4
    50202e6e:	853e                	mv	a0,a5
    50202e70:	bebff0ef          	jal	ra,50202a5a <_putc>
    50202e74:	0001                	nop
    50202e76:	f8843783          	ld	a5,-120(s0)
    50202e7a:	00178713          	addi	a4,a5,1
    50202e7e:	f8e43423          	sd	a4,-120(s0)
    50202e82:	0007c783          	lbu	a5,0(a5)
    50202e86:	fef407a3          	sb	a5,-17(s0)
    50202e8a:	fef44783          	lbu	a5,-17(s0)
    50202e8e:	0ff7f793          	andi	a5,a5,255
    50202e92:	d0079ce3          	bnez	a5,50202baa <mini_vsnprintf+0x34>
    50202e96:	a031                	j	50202ea2 <mini_vsnprintf+0x32c>
    50202e98:	0001                	nop
    50202e9a:	a021                	j	50202ea2 <mini_vsnprintf+0x32c>
    50202e9c:	0001                	nop
    50202e9e:	a011                	j	50202ea2 <mini_vsnprintf+0x32c>
    50202ea0:	0001                	nop
    50202ea2:	fc843703          	ld	a4,-56(s0)
    50202ea6:	fc043783          	ld	a5,-64(s0)
    50202eaa:	40f707b3          	sub	a5,a4,a5
    50202eae:	2781                	sext.w	a5,a5
    50202eb0:	853e                	mv	a0,a5
    50202eb2:	70e6                	ld	ra,120(sp)
    50202eb4:	7446                	ld	s0,112(sp)
    50202eb6:	6109                	addi	sp,sp,128
    50202eb8:	8082                	ret

0000000050202eba <vprintk>:
    50202eba:	7169                	addi	sp,sp,-304
    50202ebc:	f606                	sd	ra,296(sp)
    50202ebe:	f222                	sd	s0,288(sp)
    50202ec0:	1a00                	addi	s0,sp,304
    50202ec2:	eca43c23          	sd	a0,-296(s0)
    50202ec6:	ecb43823          	sd	a1,-304(s0)
    50202eca:	ed043783          	ld	a5,-304(s0)
    50202ece:	fef43023          	sd	a5,-32(s0)
    50202ed2:	fe043703          	ld	a4,-32(s0)
    50202ed6:	ee040793          	addi	a5,s0,-288
    50202eda:	86ba                	mv	a3,a4
    50202edc:	ed843603          	ld	a2,-296(s0)
    50202ee0:	10000593          	li	a1,256
    50202ee4:	853e                	mv	a0,a5
    50202ee6:	c91ff0ef          	jal	ra,50202b76 <mini_vsnprintf>
    50202eea:	87aa                	mv	a5,a0
    50202eec:	fef42423          	sw	a5,-24(s0)
    50202ef0:	fe842783          	lw	a5,-24(s0)
    50202ef4:	ff040713          	addi	a4,s0,-16
    50202ef8:	97ba                	add	a5,a5,a4
    50202efa:	ee078823          	sb	zero,-272(a5)
    50202efe:	9a6fd0ef          	jal	ra,502000a4 <disable_preempt>
    50202f02:	ee040793          	addi	a5,s0,-288
    50202f06:	853e                	mv	a0,a5
    50202f08:	c4cfd0ef          	jal	ra,50200354 <port_write>
    50202f0c:	fe042623          	sw	zero,-20(s0)
    50202f10:	a0bd                	j	50202f7e <vprintk+0xc4>
    50202f12:	fec42783          	lw	a5,-20(s0)
    50202f16:	ff040713          	addi	a4,s0,-16
    50202f1a:	97ba                	add	a5,a5,a4
    50202f1c:	ef07c783          	lbu	a5,-272(a5)
    50202f20:	873e                	mv	a4,a5
    50202f22:	47a9                	li	a5,10
    50202f24:	00f71c63          	bne	a4,a5,50202f3c <vprintk+0x82>
    50202f28:	00004797          	auipc	a5,0x4
    50202f2c:	f7078793          	addi	a5,a5,-144 # 50206e98 <current_running>
    50202f30:	639c                	ld	a5,0(a5)
    50202f32:	43f8                	lw	a4,68(a5)
    50202f34:	2705                	addiw	a4,a4,1
    50202f36:	2701                	sext.w	a4,a4
    50202f38:	c3f8                	sw	a4,68(a5)
    50202f3a:	a82d                	j	50202f74 <vprintk+0xba>
    50202f3c:	fec42783          	lw	a5,-20(s0)
    50202f40:	ff040713          	addi	a4,s0,-16
    50202f44:	97ba                	add	a5,a5,a4
    50202f46:	ef07c783          	lbu	a5,-272(a5)
    50202f4a:	873e                	mv	a4,a5
    50202f4c:	47b5                	li	a5,13
    50202f4e:	00f71a63          	bne	a4,a5,50202f62 <vprintk+0xa8>
    50202f52:	00004797          	auipc	a5,0x4
    50202f56:	f4678793          	addi	a5,a5,-186 # 50206e98 <current_running>
    50202f5a:	639c                	ld	a5,0(a5)
    50202f5c:	4705                	li	a4,1
    50202f5e:	c3b8                	sw	a4,64(a5)
    50202f60:	a811                	j	50202f74 <vprintk+0xba>
    50202f62:	00004797          	auipc	a5,0x4
    50202f66:	f3678793          	addi	a5,a5,-202 # 50206e98 <current_running>
    50202f6a:	639c                	ld	a5,0(a5)
    50202f6c:	43b8                	lw	a4,64(a5)
    50202f6e:	2705                	addiw	a4,a4,1
    50202f70:	2701                	sext.w	a4,a4
    50202f72:	c3b8                	sw	a4,64(a5)
    50202f74:	fec42783          	lw	a5,-20(s0)
    50202f78:	2785                	addiw	a5,a5,1
    50202f7a:	fef42623          	sw	a5,-20(s0)
    50202f7e:	fec42703          	lw	a4,-20(s0)
    50202f82:	fe842783          	lw	a5,-24(s0)
    50202f86:	2701                	sext.w	a4,a4
    50202f88:	2781                	sext.w	a5,a5
    50202f8a:	f8f744e3          	blt	a4,a5,50202f12 <vprintk+0x58>
    50202f8e:	8eefd0ef          	jal	ra,5020007c <enable_preempt>
    50202f92:	fe842783          	lw	a5,-24(s0)
    50202f96:	853e                	mv	a0,a5
    50202f98:	70b2                	ld	ra,296(sp)
    50202f9a:	7412                	ld	s0,288(sp)
    50202f9c:	6155                	addi	sp,sp,304
    50202f9e:	8082                	ret

0000000050202fa0 <printk>:
    50202fa0:	7159                	addi	sp,sp,-112
    50202fa2:	f406                	sd	ra,40(sp)
    50202fa4:	f022                	sd	s0,32(sp)
    50202fa6:	1800                	addi	s0,sp,48
    50202fa8:	fca43c23          	sd	a0,-40(s0)
    50202fac:	e40c                	sd	a1,8(s0)
    50202fae:	e810                	sd	a2,16(s0)
    50202fb0:	ec14                	sd	a3,24(s0)
    50202fb2:	f018                	sd	a4,32(s0)
    50202fb4:	f41c                	sd	a5,40(s0)
    50202fb6:	03043823          	sd	a6,48(s0)
    50202fba:	03143c23          	sd	a7,56(s0)
    50202fbe:	865ff0ef          	jal	ra,50202822 <assert_supervisor_mode>
    50202fc2:	fe042623          	sw	zero,-20(s0)
    50202fc6:	04040793          	addi	a5,s0,64
    50202fca:	fcf43823          	sd	a5,-48(s0)
    50202fce:	fd043783          	ld	a5,-48(s0)
    50202fd2:	fc878793          	addi	a5,a5,-56
    50202fd6:	fef43023          	sd	a5,-32(s0)
    50202fda:	fe043783          	ld	a5,-32(s0)
    50202fde:	85be                	mv	a1,a5
    50202fe0:	fd843503          	ld	a0,-40(s0)
    50202fe4:	ed7ff0ef          	jal	ra,50202eba <vprintk>
    50202fe8:	87aa                	mv	a5,a0
    50202fea:	fef42623          	sw	a5,-20(s0)
    50202fee:	fec42783          	lw	a5,-20(s0)
    50202ff2:	853e                	mv	a0,a5
    50202ff4:	70a2                	ld	ra,40(sp)
    50202ff6:	7402                	ld	s0,32(sp)
    50202ff8:	6165                	addi	sp,sp,112
    50202ffa:	8082                	ret

0000000050202ffc <mini_itoa>:
    50202ffc:	715d                	addi	sp,sp,-80
    50202ffe:	e4a2                	sd	s0,72(sp)
    50203000:	0880                	addi	s0,sp,80
    50203002:	fca43423          	sd	a0,-56(s0)
    50203006:	fae43823          	sd	a4,-80(s0)
    5020300a:	873e                	mv	a4,a5
    5020300c:	87ae                	mv	a5,a1
    5020300e:	fcf42223          	sw	a5,-60(s0)
    50203012:	87b2                	mv	a5,a2
    50203014:	fcf42023          	sw	a5,-64(s0)
    50203018:	87b6                	mv	a5,a3
    5020301a:	faf42e23          	sw	a5,-68(s0)
    5020301e:	87ba                	mv	a5,a4
    50203020:	faf42c23          	sw	a5,-72(s0)
    50203024:	fb043783          	ld	a5,-80(s0)
    50203028:	fef43423          	sd	a5,-24(s0)
    5020302c:	fe042223          	sw	zero,-28(s0)
    50203030:	fc442783          	lw	a5,-60(s0)
    50203034:	0007871b          	sext.w	a4,a5
    50203038:	47c1                	li	a5,16
    5020303a:	00e7f463          	bgeu	a5,a4,50203042 <mini_itoa+0x46>
    5020303e:	4781                	li	a5,0
    50203040:	a255                	j	502031e4 <mini_itoa+0x1e8>
    50203042:	fc843783          	ld	a5,-56(s0)
    50203046:	0007df63          	bgez	a5,50203064 <mini_itoa+0x68>
    5020304a:	fbc42783          	lw	a5,-68(s0)
    5020304e:	2781                	sext.w	a5,a5
    50203050:	eb91                	bnez	a5,50203064 <mini_itoa+0x68>
    50203052:	4785                	li	a5,1
    50203054:	fef42223          	sw	a5,-28(s0)
    50203058:	fc843783          	ld	a5,-56(s0)
    5020305c:	40f007b3          	neg	a5,a5
    50203060:	fcf43423          	sd	a5,-56(s0)
    50203064:	fc446783          	lwu	a5,-60(s0)
    50203068:	fc843703          	ld	a4,-56(s0)
    5020306c:	02f767b3          	rem	a5,a4,a5
    50203070:	fcf42e23          	sw	a5,-36(s0)
    50203074:	fdc42783          	lw	a5,-36(s0)
    50203078:	0007871b          	sext.w	a4,a5
    5020307c:	47a5                	li	a5,9
    5020307e:	00e7cb63          	blt	a5,a4,50203094 <mini_itoa+0x98>
    50203082:	fdc42783          	lw	a5,-36(s0)
    50203086:	0ff7f793          	andi	a5,a5,255
    5020308a:	0307879b          	addiw	a5,a5,48
    5020308e:	0ff7f713          	andi	a4,a5,255
    50203092:	a025                	j	502030ba <mini_itoa+0xbe>
    50203094:	fc042783          	lw	a5,-64(s0)
    50203098:	2781                	sext.w	a5,a5
    5020309a:	c781                	beqz	a5,502030a2 <mini_itoa+0xa6>
    5020309c:	04100793          	li	a5,65
    502030a0:	a019                	j	502030a6 <mini_itoa+0xaa>
    502030a2:	06100793          	li	a5,97
    502030a6:	fdc42703          	lw	a4,-36(s0)
    502030aa:	0ff77713          	andi	a4,a4,255
    502030ae:	9fb9                	addw	a5,a5,a4
    502030b0:	0ff7f793          	andi	a5,a5,255
    502030b4:	37d9                	addiw	a5,a5,-10
    502030b6:	0ff7f713          	andi	a4,a5,255
    502030ba:	fe843783          	ld	a5,-24(s0)
    502030be:	00178693          	addi	a3,a5,1
    502030c2:	fed43423          	sd	a3,-24(s0)
    502030c6:	00e78023          	sb	a4,0(a5)
    502030ca:	fc446783          	lwu	a5,-60(s0)
    502030ce:	fc843703          	ld	a4,-56(s0)
    502030d2:	02f747b3          	div	a5,a4,a5
    502030d6:	fcf43423          	sd	a5,-56(s0)
    502030da:	fc843783          	ld	a5,-56(s0)
    502030de:	f8f043e3          	bgtz	a5,50203064 <mini_itoa+0x68>
    502030e2:	fe843703          	ld	a4,-24(s0)
    502030e6:	fb043783          	ld	a5,-80(s0)
    502030ea:	40f707b3          	sub	a5,a4,a5
    502030ee:	fef42023          	sw	a5,-32(s0)
    502030f2:	a005                	j	50203112 <mini_itoa+0x116>
    502030f4:	fe843783          	ld	a5,-24(s0)
    502030f8:	00178713          	addi	a4,a5,1
    502030fc:	fee43423          	sd	a4,-24(s0)
    50203100:	03000713          	li	a4,48
    50203104:	00e78023          	sb	a4,0(a5)
    50203108:	fe042783          	lw	a5,-32(s0)
    5020310c:	2785                	addiw	a5,a5,1
    5020310e:	fef42023          	sw	a5,-32(s0)
    50203112:	fe042703          	lw	a4,-32(s0)
    50203116:	fb842783          	lw	a5,-72(s0)
    5020311a:	2701                	sext.w	a4,a4
    5020311c:	2781                	sext.w	a5,a5
    5020311e:	fcf76be3          	bltu	a4,a5,502030f4 <mini_itoa+0xf8>
    50203122:	fe442783          	lw	a5,-28(s0)
    50203126:	2781                	sext.w	a5,a5
    50203128:	cb99                	beqz	a5,5020313e <mini_itoa+0x142>
    5020312a:	fe843783          	ld	a5,-24(s0)
    5020312e:	00178713          	addi	a4,a5,1
    50203132:	fee43423          	sd	a4,-24(s0)
    50203136:	02d00713          	li	a4,45
    5020313a:	00e78023          	sb	a4,0(a5)
    5020313e:	fe843783          	ld	a5,-24(s0)
    50203142:	00078023          	sb	zero,0(a5)
    50203146:	fe843703          	ld	a4,-24(s0)
    5020314a:	fb043783          	ld	a5,-80(s0)
    5020314e:	40f707b3          	sub	a5,a4,a5
    50203152:	fcf42c23          	sw	a5,-40(s0)
    50203156:	fe042023          	sw	zero,-32(s0)
    5020315a:	a885                	j	502031ca <mini_itoa+0x1ce>
    5020315c:	fe046783          	lwu	a5,-32(s0)
    50203160:	fb043703          	ld	a4,-80(s0)
    50203164:	97ba                	add	a5,a5,a4
    50203166:	0007c783          	lbu	a5,0(a5)
    5020316a:	fcf40ba3          	sb	a5,-41(s0)
    5020316e:	fd842703          	lw	a4,-40(s0)
    50203172:	fe042783          	lw	a5,-32(s0)
    50203176:	40f707bb          	subw	a5,a4,a5
    5020317a:	2781                	sext.w	a5,a5
    5020317c:	37fd                	addiw	a5,a5,-1
    5020317e:	2781                	sext.w	a5,a5
    50203180:	1782                	slli	a5,a5,0x20
    50203182:	9381                	srli	a5,a5,0x20
    50203184:	fb043703          	ld	a4,-80(s0)
    50203188:	973e                	add	a4,a4,a5
    5020318a:	fe046783          	lwu	a5,-32(s0)
    5020318e:	fb043683          	ld	a3,-80(s0)
    50203192:	97b6                	add	a5,a5,a3
    50203194:	00074703          	lbu	a4,0(a4)
    50203198:	00e78023          	sb	a4,0(a5)
    5020319c:	fd842703          	lw	a4,-40(s0)
    502031a0:	fe042783          	lw	a5,-32(s0)
    502031a4:	40f707bb          	subw	a5,a4,a5
    502031a8:	2781                	sext.w	a5,a5
    502031aa:	37fd                	addiw	a5,a5,-1
    502031ac:	2781                	sext.w	a5,a5
    502031ae:	1782                	slli	a5,a5,0x20
    502031b0:	9381                	srli	a5,a5,0x20
    502031b2:	fb043703          	ld	a4,-80(s0)
    502031b6:	97ba                	add	a5,a5,a4
    502031b8:	fd744703          	lbu	a4,-41(s0)
    502031bc:	00e78023          	sb	a4,0(a5)
    502031c0:	fe042783          	lw	a5,-32(s0)
    502031c4:	2785                	addiw	a5,a5,1
    502031c6:	fef42023          	sw	a5,-32(s0)
    502031ca:	fd842783          	lw	a5,-40(s0)
    502031ce:	0017d79b          	srliw	a5,a5,0x1
    502031d2:	0007871b          	sext.w	a4,a5
    502031d6:	fe042783          	lw	a5,-32(s0)
    502031da:	2781                	sext.w	a5,a5
    502031dc:	f8e7e0e3          	bltu	a5,a4,5020315c <mini_itoa+0x160>
    502031e0:	fd842783          	lw	a5,-40(s0)
    502031e4:	853e                	mv	a0,a5
    502031e6:	6426                	ld	s0,72(sp)
    502031e8:	6161                	addi	sp,sp,80
    502031ea:	8082                	ret

00000000502031ec <_putc>:
    502031ec:	1101                	addi	sp,sp,-32
    502031ee:	ec22                	sd	s0,24(sp)
    502031f0:	1000                	addi	s0,sp,32
    502031f2:	87aa                	mv	a5,a0
    502031f4:	feb43023          	sd	a1,-32(s0)
    502031f8:	fef42623          	sw	a5,-20(s0)
    502031fc:	fe043783          	ld	a5,-32(s0)
    50203200:	6798                	ld	a4,8(a5)
    50203202:	fe043783          	ld	a5,-32(s0)
    50203206:	639c                	ld	a5,0(a5)
    50203208:	40f707b3          	sub	a5,a4,a5
    5020320c:	2781                	sext.w	a5,a5
    5020320e:	2785                	addiw	a5,a5,1
    50203210:	0007871b          	sext.w	a4,a5
    50203214:	fe043783          	ld	a5,-32(s0)
    50203218:	4b9c                	lw	a5,16(a5)
    5020321a:	00f76463          	bltu	a4,a5,50203222 <_putc+0x36>
    5020321e:	4781                	li	a5,0
    50203220:	a02d                	j	5020324a <_putc+0x5e>
    50203222:	fe043783          	ld	a5,-32(s0)
    50203226:	679c                	ld	a5,8(a5)
    50203228:	00178693          	addi	a3,a5,1
    5020322c:	fe043703          	ld	a4,-32(s0)
    50203230:	e714                	sd	a3,8(a4)
    50203232:	fec42703          	lw	a4,-20(s0)
    50203236:	0ff77713          	andi	a4,a4,255
    5020323a:	00e78023          	sb	a4,0(a5)
    5020323e:	fe043783          	ld	a5,-32(s0)
    50203242:	679c                	ld	a5,8(a5)
    50203244:	00078023          	sb	zero,0(a5)
    50203248:	4785                	li	a5,1
    5020324a:	853e                	mv	a0,a5
    5020324c:	6462                	ld	s0,24(sp)
    5020324e:	6105                	addi	sp,sp,32
    50203250:	8082                	ret

0000000050203252 <_puts>:
    50203252:	7139                	addi	sp,sp,-64
    50203254:	fc22                	sd	s0,56(sp)
    50203256:	0080                	addi	s0,sp,64
    50203258:	fca43c23          	sd	a0,-40(s0)
    5020325c:	87ae                	mv	a5,a1
    5020325e:	fcc43423          	sd	a2,-56(s0)
    50203262:	fcf42a23          	sw	a5,-44(s0)
    50203266:	fc843783          	ld	a5,-56(s0)
    5020326a:	4b9c                	lw	a5,16(a5)
    5020326c:	02079713          	slli	a4,a5,0x20
    50203270:	9301                	srli	a4,a4,0x20
    50203272:	fc843783          	ld	a5,-56(s0)
    50203276:	6794                	ld	a3,8(a5)
    50203278:	fc843783          	ld	a5,-56(s0)
    5020327c:	639c                	ld	a5,0(a5)
    5020327e:	40f687b3          	sub	a5,a3,a5
    50203282:	8f1d                	sub	a4,a4,a5
    50203284:	fd446783          	lwu	a5,-44(s0)
    50203288:	02e7c463          	blt	a5,a4,502032b0 <_puts+0x5e>
    5020328c:	fc843783          	ld	a5,-56(s0)
    50203290:	4b98                	lw	a4,16(a5)
    50203292:	fc843783          	ld	a5,-56(s0)
    50203296:	6794                	ld	a3,8(a5)
    50203298:	fc843783          	ld	a5,-56(s0)
    5020329c:	639c                	ld	a5,0(a5)
    5020329e:	40f687b3          	sub	a5,a3,a5
    502032a2:	2781                	sext.w	a5,a5
    502032a4:	40f707bb          	subw	a5,a4,a5
    502032a8:	2781                	sext.w	a5,a5
    502032aa:	37fd                	addiw	a5,a5,-1
    502032ac:	fcf42a23          	sw	a5,-44(s0)
    502032b0:	fe042623          	sw	zero,-20(s0)
    502032b4:	a03d                	j	502032e2 <_puts+0x90>
    502032b6:	fec46783          	lwu	a5,-20(s0)
    502032ba:	fd843703          	ld	a4,-40(s0)
    502032be:	973e                	add	a4,a4,a5
    502032c0:	fc843783          	ld	a5,-56(s0)
    502032c4:	679c                	ld	a5,8(a5)
    502032c6:	00178613          	addi	a2,a5,1
    502032ca:	fc843683          	ld	a3,-56(s0)
    502032ce:	e690                	sd	a2,8(a3)
    502032d0:	00074703          	lbu	a4,0(a4)
    502032d4:	00e78023          	sb	a4,0(a5)
    502032d8:	fec42783          	lw	a5,-20(s0)
    502032dc:	2785                	addiw	a5,a5,1
    502032de:	fef42623          	sw	a5,-20(s0)
    502032e2:	fec42703          	lw	a4,-20(s0)
    502032e6:	fd442783          	lw	a5,-44(s0)
    502032ea:	2701                	sext.w	a4,a4
    502032ec:	2781                	sext.w	a5,a5
    502032ee:	fcf764e3          	bltu	a4,a5,502032b6 <_puts+0x64>
    502032f2:	fc843783          	ld	a5,-56(s0)
    502032f6:	679c                	ld	a5,8(a5)
    502032f8:	00078023          	sb	zero,0(a5)
    502032fc:	fd442783          	lw	a5,-44(s0)
    50203300:	853e                	mv	a0,a5
    50203302:	7462                	ld	s0,56(sp)
    50203304:	6121                	addi	sp,sp,64
    50203306:	8082                	ret

0000000050203308 <mini_vsnprintf>:
    50203308:	7119                	addi	sp,sp,-128
    5020330a:	fc86                	sd	ra,120(sp)
    5020330c:	f8a2                	sd	s0,112(sp)
    5020330e:	0100                	addi	s0,sp,128
    50203310:	f8a43c23          	sd	a0,-104(s0)
    50203314:	87ae                	mv	a5,a1
    50203316:	f8c43423          	sd	a2,-120(s0)
    5020331a:	f8d43023          	sd	a3,-128(s0)
    5020331e:	f8f42a23          	sw	a5,-108(s0)
    50203322:	f9843783          	ld	a5,-104(s0)
    50203326:	fcf43023          	sd	a5,-64(s0)
    5020332a:	f9843783          	ld	a5,-104(s0)
    5020332e:	fcf43423          	sd	a5,-56(s0)
    50203332:	f9442783          	lw	a5,-108(s0)
    50203336:	fcf42823          	sw	a5,-48(s0)
    5020333a:	a4f9                	j	50203608 <mini_vsnprintf+0x300>
    5020333c:	fc843703          	ld	a4,-56(s0)
    50203340:	fc043783          	ld	a5,-64(s0)
    50203344:	40f707b3          	sub	a5,a4,a5
    50203348:	2781                	sext.w	a5,a5
    5020334a:	2785                	addiw	a5,a5,1
    5020334c:	0007871b          	sext.w	a4,a5
    50203350:	fd042783          	lw	a5,-48(s0)
    50203354:	2cf77b63          	bgeu	a4,a5,5020362a <mini_vsnprintf+0x322>
    50203358:	fef44783          	lbu	a5,-17(s0)
    5020335c:	0ff7f713          	andi	a4,a5,255
    50203360:	02500793          	li	a5,37
    50203364:	00f70c63          	beq	a4,a5,5020337c <mini_vsnprintf+0x74>
    50203368:	fef44783          	lbu	a5,-17(s0)
    5020336c:	2781                	sext.w	a5,a5
    5020336e:	fc040713          	addi	a4,s0,-64
    50203372:	85ba                	mv	a1,a4
    50203374:	853e                	mv	a0,a5
    50203376:	e77ff0ef          	jal	ra,502031ec <_putc>
    5020337a:	a479                	j	50203608 <mini_vsnprintf+0x300>
    5020337c:	fe040723          	sb	zero,-18(s0)
    50203380:	fe042423          	sw	zero,-24(s0)
    50203384:	f8843783          	ld	a5,-120(s0)
    50203388:	00178713          	addi	a4,a5,1
    5020338c:	f8e43423          	sd	a4,-120(s0)
    50203390:	0007c783          	lbu	a5,0(a5)
    50203394:	fef407a3          	sb	a5,-17(s0)
    50203398:	fef44783          	lbu	a5,-17(s0)
    5020339c:	0ff7f713          	andi	a4,a5,255
    502033a0:	03000793          	li	a5,48
    502033a4:	06f71b63          	bne	a4,a5,5020341a <mini_vsnprintf+0x112>
    502033a8:	a891                	j	502033fc <mini_vsnprintf+0xf4>
    502033aa:	fef44783          	lbu	a5,-17(s0)
    502033ae:	0ff7f793          	andi	a5,a5,255
    502033b2:	26078e63          	beqz	a5,5020362e <mini_vsnprintf+0x326>
    502033b6:	fef44783          	lbu	a5,-17(s0)
    502033ba:	0ff7f713          	andi	a4,a5,255
    502033be:	02f00793          	li	a5,47
    502033c2:	04e7fc63          	bgeu	a5,a4,5020341a <mini_vsnprintf+0x112>
    502033c6:	fef44783          	lbu	a5,-17(s0)
    502033ca:	0ff7f713          	andi	a4,a5,255
    502033ce:	03900793          	li	a5,57
    502033d2:	04e7e463          	bltu	a5,a4,5020341a <mini_vsnprintf+0x112>
    502033d6:	fee44703          	lbu	a4,-18(s0)
    502033da:	87ba                	mv	a5,a4
    502033dc:	0027979b          	slliw	a5,a5,0x2
    502033e0:	9fb9                	addw	a5,a5,a4
    502033e2:	0017979b          	slliw	a5,a5,0x1
    502033e6:	0ff7f793          	andi	a5,a5,255
    502033ea:	fef44703          	lbu	a4,-17(s0)
    502033ee:	9fb9                	addw	a5,a5,a4
    502033f0:	0ff7f793          	andi	a5,a5,255
    502033f4:	fd07879b          	addiw	a5,a5,-48
    502033f8:	fef40723          	sb	a5,-18(s0)
    502033fc:	f8843783          	ld	a5,-120(s0)
    50203400:	00178713          	addi	a4,a5,1
    50203404:	f8e43423          	sd	a4,-120(s0)
    50203408:	0007c783          	lbu	a5,0(a5)
    5020340c:	fef407a3          	sb	a5,-17(s0)
    50203410:	fef44783          	lbu	a5,-17(s0)
    50203414:	0ff7f793          	andi	a5,a5,255
    50203418:	fbc9                	bnez	a5,502033aa <mini_vsnprintf+0xa2>
    5020341a:	fef44783          	lbu	a5,-17(s0)
    5020341e:	0ff7f713          	andi	a4,a5,255
    50203422:	06c00793          	li	a5,108
    50203426:	00f71f63          	bne	a4,a5,50203444 <mini_vsnprintf+0x13c>
    5020342a:	4785                	li	a5,1
    5020342c:	fef42423          	sw	a5,-24(s0)
    50203430:	f8843783          	ld	a5,-120(s0)
    50203434:	00178713          	addi	a4,a5,1
    50203438:	f8e43423          	sd	a4,-120(s0)
    5020343c:	0007c783          	lbu	a5,0(a5)
    50203440:	fef407a3          	sb	a5,-17(s0)
    50203444:	fef44783          	lbu	a5,-17(s0)
    50203448:	2781                	sext.w	a5,a5
    5020344a:	1e078463          	beqz	a5,50203632 <mini_vsnprintf+0x32a>
    5020344e:	873e                	mv	a4,a5
    50203450:	1a074263          	bltz	a4,502035f4 <mini_vsnprintf+0x2ec>
    50203454:	86be                	mv	a3,a5
    50203456:	07800713          	li	a4,120
    5020345a:	18d74d63          	blt	a4,a3,502035f4 <mini_vsnprintf+0x2ec>
    5020345e:	86be                	mv	a3,a5
    50203460:	05800713          	li	a4,88
    50203464:	18e6c863          	blt	a3,a4,502035f4 <mini_vsnprintf+0x2ec>
    50203468:	fa87869b          	addiw	a3,a5,-88
    5020346c:	0006871b          	sext.w	a4,a3
    50203470:	02000793          	li	a5,32
    50203474:	18e7e063          	bltu	a5,a4,502035f4 <mini_vsnprintf+0x2ec>
    50203478:	02069793          	slli	a5,a3,0x20
    5020347c:	9381                	srli	a5,a5,0x20
    5020347e:	00279713          	slli	a4,a5,0x2
    50203482:	00001797          	auipc	a5,0x1
    50203486:	17a78793          	addi	a5,a5,378 # 502045fc <__FUNCTION__.1341+0xb4>
    5020348a:	97ba                	add	a5,a5,a4
    5020348c:	439c                	lw	a5,0(a5)
    5020348e:	0007871b          	sext.w	a4,a5
    50203492:	00001797          	auipc	a5,0x1
    50203496:	16a78793          	addi	a5,a5,362 # 502045fc <__FUNCTION__.1341+0xb4>
    5020349a:	97ba                	add	a5,a5,a4
    5020349c:	8782                	jr	a5
    5020349e:	4785                	li	a5,1
    502034a0:	fef42423          	sw	a5,-24(s0)
    502034a4:	a295                	j	50203608 <mini_vsnprintf+0x300>
    502034a6:	fe842783          	lw	a5,-24(s0)
    502034aa:	2781                	sext.w	a5,a5
    502034ac:	ef81                	bnez	a5,502034c4 <mini_vsnprintf+0x1bc>
    502034ae:	f8043783          	ld	a5,-128(s0)
    502034b2:	00878713          	addi	a4,a5,8
    502034b6:	f8e43023          	sd	a4,-128(s0)
    502034ba:	439c                	lw	a5,0(a5)
    502034bc:	02079513          	slli	a0,a5,0x20
    502034c0:	9101                	srli	a0,a0,0x20
    502034c2:	a809                	j	502034d4 <mini_vsnprintf+0x1cc>
    502034c4:	f8043783          	ld	a5,-128(s0)
    502034c8:	00878713          	addi	a4,a5,8
    502034cc:	f8e43023          	sd	a4,-128(s0)
    502034d0:	639c                	ld	a5,0(a5)
    502034d2:	853e                	mv	a0,a5
    502034d4:	fef44783          	lbu	a5,-17(s0)
    502034d8:	0007871b          	sext.w	a4,a5
    502034dc:	07500793          	li	a5,117
    502034e0:	40f707b3          	sub	a5,a4,a5
    502034e4:	0017b793          	seqz	a5,a5
    502034e8:	0ff7f793          	andi	a5,a5,255
    502034ec:	0007869b          	sext.w	a3,a5
    502034f0:	fee44783          	lbu	a5,-18(s0)
    502034f4:	2781                	sext.w	a5,a5
    502034f6:	fa840713          	addi	a4,s0,-88
    502034fa:	4601                	li	a2,0
    502034fc:	45a9                	li	a1,10
    502034fe:	affff0ef          	jal	ra,50202ffc <mini_itoa>
    50203502:	87aa                	mv	a5,a0
    50203504:	fcf42e23          	sw	a5,-36(s0)
    50203508:	fc040693          	addi	a3,s0,-64
    5020350c:	fdc42703          	lw	a4,-36(s0)
    50203510:	fa840793          	addi	a5,s0,-88
    50203514:	8636                	mv	a2,a3
    50203516:	85ba                	mv	a1,a4
    50203518:	853e                	mv	a0,a5
    5020351a:	d39ff0ef          	jal	ra,50203252 <_puts>
    5020351e:	fe042423          	sw	zero,-24(s0)
    50203522:	a0dd                	j	50203608 <mini_vsnprintf+0x300>
    50203524:	fe842783          	lw	a5,-24(s0)
    50203528:	2781                	sext.w	a5,a5
    5020352a:	ef81                	bnez	a5,50203542 <mini_vsnprintf+0x23a>
    5020352c:	f8043783          	ld	a5,-128(s0)
    50203530:	00878713          	addi	a4,a5,8
    50203534:	f8e43023          	sd	a4,-128(s0)
    50203538:	439c                	lw	a5,0(a5)
    5020353a:	02079513          	slli	a0,a5,0x20
    5020353e:	9101                	srli	a0,a0,0x20
    50203540:	a809                	j	50203552 <mini_vsnprintf+0x24a>
    50203542:	f8043783          	ld	a5,-128(s0)
    50203546:	00878713          	addi	a4,a5,8
    5020354a:	f8e43023          	sd	a4,-128(s0)
    5020354e:	639c                	ld	a5,0(a5)
    50203550:	853e                	mv	a0,a5
    50203552:	fef44783          	lbu	a5,-17(s0)
    50203556:	0007871b          	sext.w	a4,a5
    5020355a:	05800793          	li	a5,88
    5020355e:	40f707b3          	sub	a5,a4,a5
    50203562:	0017b793          	seqz	a5,a5
    50203566:	0ff7f793          	andi	a5,a5,255
    5020356a:	0007861b          	sext.w	a2,a5
    5020356e:	fee44783          	lbu	a5,-18(s0)
    50203572:	2781                	sext.w	a5,a5
    50203574:	fa840713          	addi	a4,s0,-88
    50203578:	4685                	li	a3,1
    5020357a:	45c1                	li	a1,16
    5020357c:	a81ff0ef          	jal	ra,50202ffc <mini_itoa>
    50203580:	87aa                	mv	a5,a0
    50203582:	fcf42e23          	sw	a5,-36(s0)
    50203586:	fc040693          	addi	a3,s0,-64
    5020358a:	fdc42703          	lw	a4,-36(s0)
    5020358e:	fa840793          	addi	a5,s0,-88
    50203592:	8636                	mv	a2,a3
    50203594:	85ba                	mv	a1,a4
    50203596:	853e                	mv	a0,a5
    50203598:	cbbff0ef          	jal	ra,50203252 <_puts>
    5020359c:	fe042423          	sw	zero,-24(s0)
    502035a0:	a0a5                	j	50203608 <mini_vsnprintf+0x300>
    502035a2:	f8043783          	ld	a5,-128(s0)
    502035a6:	00878713          	addi	a4,a5,8
    502035aa:	f8e43023          	sd	a4,-128(s0)
    502035ae:	439c                	lw	a5,0(a5)
    502035b0:	0ff7f793          	andi	a5,a5,255
    502035b4:	2781                	sext.w	a5,a5
    502035b6:	fc040713          	addi	a4,s0,-64
    502035ba:	85ba                	mv	a1,a4
    502035bc:	853e                	mv	a0,a5
    502035be:	c2fff0ef          	jal	ra,502031ec <_putc>
    502035c2:	a099                	j	50203608 <mini_vsnprintf+0x300>
    502035c4:	f8043783          	ld	a5,-128(s0)
    502035c8:	00878713          	addi	a4,a5,8
    502035cc:	f8e43023          	sd	a4,-128(s0)
    502035d0:	639c                	ld	a5,0(a5)
    502035d2:	fef43023          	sd	a5,-32(s0)
    502035d6:	fe043503          	ld	a0,-32(s0)
    502035da:	126000ef          	jal	ra,50203700 <strlen>
    502035de:	87aa                	mv	a5,a0
    502035e0:	2781                	sext.w	a5,a5
    502035e2:	fc040713          	addi	a4,s0,-64
    502035e6:	863a                	mv	a2,a4
    502035e8:	85be                	mv	a1,a5
    502035ea:	fe043503          	ld	a0,-32(s0)
    502035ee:	c65ff0ef          	jal	ra,50203252 <_puts>
    502035f2:	a819                	j	50203608 <mini_vsnprintf+0x300>
    502035f4:	fef44783          	lbu	a5,-17(s0)
    502035f8:	2781                	sext.w	a5,a5
    502035fa:	fc040713          	addi	a4,s0,-64
    502035fe:	85ba                	mv	a1,a4
    50203600:	853e                	mv	a0,a5
    50203602:	bebff0ef          	jal	ra,502031ec <_putc>
    50203606:	0001                	nop
    50203608:	f8843783          	ld	a5,-120(s0)
    5020360c:	00178713          	addi	a4,a5,1
    50203610:	f8e43423          	sd	a4,-120(s0)
    50203614:	0007c783          	lbu	a5,0(a5)
    50203618:	fef407a3          	sb	a5,-17(s0)
    5020361c:	fef44783          	lbu	a5,-17(s0)
    50203620:	0ff7f793          	andi	a5,a5,255
    50203624:	d0079ce3          	bnez	a5,5020333c <mini_vsnprintf+0x34>
    50203628:	a031                	j	50203634 <mini_vsnprintf+0x32c>
    5020362a:	0001                	nop
    5020362c:	a021                	j	50203634 <mini_vsnprintf+0x32c>
    5020362e:	0001                	nop
    50203630:	a011                	j	50203634 <mini_vsnprintf+0x32c>
    50203632:	0001                	nop
    50203634:	fc843703          	ld	a4,-56(s0)
    50203638:	fc043783          	ld	a5,-64(s0)
    5020363c:	40f707b3          	sub	a5,a4,a5
    50203640:	2781                	sext.w	a5,a5
    50203642:	853e                	mv	a0,a5
    50203644:	70e6                	ld	ra,120(sp)
    50203646:	7446                	ld	s0,112(sp)
    50203648:	6109                	addi	sp,sp,128
    5020364a:	8082                	ret

000000005020364c <vprintf>:
    5020364c:	7169                	addi	sp,sp,-304
    5020364e:	f606                	sd	ra,296(sp)
    50203650:	f222                	sd	s0,288(sp)
    50203652:	1a00                	addi	s0,sp,304
    50203654:	eca43c23          	sd	a0,-296(s0)
    50203658:	ecb43823          	sd	a1,-304(s0)
    5020365c:	ed043783          	ld	a5,-304(s0)
    50203660:	fef43023          	sd	a5,-32(s0)
    50203664:	fe043703          	ld	a4,-32(s0)
    50203668:	ee040793          	addi	a5,s0,-288
    5020366c:	86ba                	mv	a3,a4
    5020366e:	ed843603          	ld	a2,-296(s0)
    50203672:	10000593          	li	a1,256
    50203676:	853e                	mv	a0,a5
    50203678:	c91ff0ef          	jal	ra,50203308 <mini_vsnprintf>
    5020367c:	87aa                	mv	a5,a0
    5020367e:	fef42623          	sw	a5,-20(s0)
    50203682:	fec42783          	lw	a5,-20(s0)
    50203686:	ff040713          	addi	a4,s0,-16
    5020368a:	97ba                	add	a5,a5,a4
    5020368c:	ee078823          	sb	zero,-272(a5)
    50203690:	ee040793          	addi	a5,s0,-288
    50203694:	853e                	mv	a0,a5
    50203696:	38a000ef          	jal	ra,50203a20 <sys_write>
    5020369a:	fec42783          	lw	a5,-20(s0)
    5020369e:	853e                	mv	a0,a5
    502036a0:	70b2                	ld	ra,296(sp)
    502036a2:	7412                	ld	s0,288(sp)
    502036a4:	6155                	addi	sp,sp,304
    502036a6:	8082                	ret

00000000502036a8 <printf>:
    502036a8:	7159                	addi	sp,sp,-112
    502036aa:	f406                	sd	ra,40(sp)
    502036ac:	f022                	sd	s0,32(sp)
    502036ae:	1800                	addi	s0,sp,48
    502036b0:	fca43c23          	sd	a0,-40(s0)
    502036b4:	e40c                	sd	a1,8(s0)
    502036b6:	e810                	sd	a2,16(s0)
    502036b8:	ec14                	sd	a3,24(s0)
    502036ba:	f018                	sd	a4,32(s0)
    502036bc:	f41c                	sd	a5,40(s0)
    502036be:	03043823          	sd	a6,48(s0)
    502036c2:	03143c23          	sd	a7,56(s0)
    502036c6:	fe042623          	sw	zero,-20(s0)
    502036ca:	04040793          	addi	a5,s0,64
    502036ce:	fcf43823          	sd	a5,-48(s0)
    502036d2:	fd043783          	ld	a5,-48(s0)
    502036d6:	fc878793          	addi	a5,a5,-56
    502036da:	fef43023          	sd	a5,-32(s0)
    502036de:	fe043783          	ld	a5,-32(s0)
    502036e2:	85be                	mv	a1,a5
    502036e4:	fd843503          	ld	a0,-40(s0)
    502036e8:	f65ff0ef          	jal	ra,5020364c <vprintf>
    502036ec:	87aa                	mv	a5,a0
    502036ee:	fef42623          	sw	a5,-20(s0)
    502036f2:	fec42783          	lw	a5,-20(s0)
    502036f6:	853e                	mv	a0,a5
    502036f8:	70a2                	ld	ra,40(sp)
    502036fa:	7402                	ld	s0,32(sp)
    502036fc:	6165                	addi	sp,sp,112
    502036fe:	8082                	ret

0000000050203700 <strlen>:
    50203700:	7179                	addi	sp,sp,-48
    50203702:	f422                	sd	s0,40(sp)
    50203704:	1800                	addi	s0,sp,48
    50203706:	fca43c23          	sd	a0,-40(s0)
    5020370a:	fe042623          	sw	zero,-20(s0)
    5020370e:	a031                	j	5020371a <strlen+0x1a>
    50203710:	fec42783          	lw	a5,-20(s0)
    50203714:	2785                	addiw	a5,a5,1
    50203716:	fef42623          	sw	a5,-20(s0)
    5020371a:	fec42783          	lw	a5,-20(s0)
    5020371e:	fd843703          	ld	a4,-40(s0)
    50203722:	97ba                	add	a5,a5,a4
    50203724:	0007c783          	lbu	a5,0(a5)
    50203728:	f7e5                	bnez	a5,50203710 <strlen+0x10>
    5020372a:	fec42783          	lw	a5,-20(s0)
    5020372e:	853e                	mv	a0,a5
    50203730:	7422                	ld	s0,40(sp)
    50203732:	6145                	addi	sp,sp,48
    50203734:	8082                	ret

0000000050203736 <memcpy>:
    50203736:	7179                	addi	sp,sp,-48
    50203738:	f422                	sd	s0,40(sp)
    5020373a:	1800                	addi	s0,sp,48
    5020373c:	fea43423          	sd	a0,-24(s0)
    50203740:	feb43023          	sd	a1,-32(s0)
    50203744:	87b2                	mv	a5,a2
    50203746:	fcf42e23          	sw	a5,-36(s0)
    5020374a:	a035                	j	50203776 <memcpy+0x40>
    5020374c:	fe043703          	ld	a4,-32(s0)
    50203750:	00170793          	addi	a5,a4,1
    50203754:	fef43023          	sd	a5,-32(s0)
    50203758:	fe843783          	ld	a5,-24(s0)
    5020375c:	00178693          	addi	a3,a5,1
    50203760:	fed43423          	sd	a3,-24(s0)
    50203764:	00074703          	lbu	a4,0(a4)
    50203768:	00e78023          	sb	a4,0(a5)
    5020376c:	fdc42783          	lw	a5,-36(s0)
    50203770:	37fd                	addiw	a5,a5,-1
    50203772:	fcf42e23          	sw	a5,-36(s0)
    50203776:	fdc42783          	lw	a5,-36(s0)
    5020377a:	2781                	sext.w	a5,a5
    5020377c:	fbe1                	bnez	a5,5020374c <memcpy+0x16>
    5020377e:	0001                	nop
    50203780:	0001                	nop
    50203782:	7422                	ld	s0,40(sp)
    50203784:	6145                	addi	sp,sp,48
    50203786:	8082                	ret

0000000050203788 <memset>:
    50203788:	7179                	addi	sp,sp,-48
    5020378a:	f422                	sd	s0,40(sp)
    5020378c:	1800                	addi	s0,sp,48
    5020378e:	fca43c23          	sd	a0,-40(s0)
    50203792:	87ae                	mv	a5,a1
    50203794:	8732                	mv	a4,a2
    50203796:	fcf40ba3          	sb	a5,-41(s0)
    5020379a:	87ba                	mv	a5,a4
    5020379c:	fcf42823          	sw	a5,-48(s0)
    502037a0:	fd843783          	ld	a5,-40(s0)
    502037a4:	fef43423          	sd	a5,-24(s0)
    502037a8:	a005                	j	502037c8 <memset+0x40>
    502037aa:	fe843783          	ld	a5,-24(s0)
    502037ae:	00178713          	addi	a4,a5,1
    502037b2:	fee43423          	sd	a4,-24(s0)
    502037b6:	fd744703          	lbu	a4,-41(s0)
    502037ba:	00e78023          	sb	a4,0(a5)
    502037be:	fd042783          	lw	a5,-48(s0)
    502037c2:	37fd                	addiw	a5,a5,-1
    502037c4:	fcf42823          	sw	a5,-48(s0)
    502037c8:	fd042783          	lw	a5,-48(s0)
    502037cc:	2781                	sext.w	a5,a5
    502037ce:	fff1                	bnez	a5,502037aa <memset+0x22>
    502037d0:	0001                	nop
    502037d2:	0001                	nop
    502037d4:	7422                	ld	s0,40(sp)
    502037d6:	6145                	addi	sp,sp,48
    502037d8:	8082                	ret

00000000502037da <bzero>:
    502037da:	1101                	addi	sp,sp,-32
    502037dc:	ec06                	sd	ra,24(sp)
    502037de:	e822                	sd	s0,16(sp)
    502037e0:	1000                	addi	s0,sp,32
    502037e2:	fea43423          	sd	a0,-24(s0)
    502037e6:	87ae                	mv	a5,a1
    502037e8:	fef42223          	sw	a5,-28(s0)
    502037ec:	fe442783          	lw	a5,-28(s0)
    502037f0:	863e                	mv	a2,a5
    502037f2:	4581                	li	a1,0
    502037f4:	fe843503          	ld	a0,-24(s0)
    502037f8:	f91ff0ef          	jal	ra,50203788 <memset>
    502037fc:	0001                	nop
    502037fe:	60e2                	ld	ra,24(sp)
    50203800:	6442                	ld	s0,16(sp)
    50203802:	6105                	addi	sp,sp,32
    50203804:	8082                	ret

0000000050203806 <strcmp>:
    50203806:	1101                	addi	sp,sp,-32
    50203808:	ec22                	sd	s0,24(sp)
    5020380a:	1000                	addi	s0,sp,32
    5020380c:	fea43423          	sd	a0,-24(s0)
    50203810:	feb43023          	sd	a1,-32(s0)
    50203814:	a0a1                	j	5020385c <strcmp+0x56>
    50203816:	fe843783          	ld	a5,-24(s0)
    5020381a:	0007c703          	lbu	a4,0(a5)
    5020381e:	fe043783          	ld	a5,-32(s0)
    50203822:	0007c783          	lbu	a5,0(a5)
    50203826:	02f70163          	beq	a4,a5,50203848 <strcmp+0x42>
    5020382a:	fe843783          	ld	a5,-24(s0)
    5020382e:	0007c783          	lbu	a5,0(a5)
    50203832:	0007871b          	sext.w	a4,a5
    50203836:	fe043783          	ld	a5,-32(s0)
    5020383a:	0007c783          	lbu	a5,0(a5)
    5020383e:	2781                	sext.w	a5,a5
    50203840:	40f707bb          	subw	a5,a4,a5
    50203844:	2781                	sext.w	a5,a5
    50203846:	a099                	j	5020388c <strcmp+0x86>
    50203848:	fe843783          	ld	a5,-24(s0)
    5020384c:	0785                	addi	a5,a5,1
    5020384e:	fef43423          	sd	a5,-24(s0)
    50203852:	fe043783          	ld	a5,-32(s0)
    50203856:	0785                	addi	a5,a5,1
    50203858:	fef43023          	sd	a5,-32(s0)
    5020385c:	fe843783          	ld	a5,-24(s0)
    50203860:	0007c783          	lbu	a5,0(a5)
    50203864:	c791                	beqz	a5,50203870 <strcmp+0x6a>
    50203866:	fe043783          	ld	a5,-32(s0)
    5020386a:	0007c783          	lbu	a5,0(a5)
    5020386e:	f7c5                	bnez	a5,50203816 <strcmp+0x10>
    50203870:	fe843783          	ld	a5,-24(s0)
    50203874:	0007c783          	lbu	a5,0(a5)
    50203878:	0007871b          	sext.w	a4,a5
    5020387c:	fe043783          	ld	a5,-32(s0)
    50203880:	0007c783          	lbu	a5,0(a5)
    50203884:	2781                	sext.w	a5,a5
    50203886:	40f707bb          	subw	a5,a4,a5
    5020388a:	2781                	sext.w	a5,a5
    5020388c:	853e                	mv	a0,a5
    5020388e:	6462                	ld	s0,24(sp)
    50203890:	6105                	addi	sp,sp,32
    50203892:	8082                	ret

0000000050203894 <strcpy>:
    50203894:	7179                	addi	sp,sp,-48
    50203896:	f422                	sd	s0,40(sp)
    50203898:	1800                	addi	s0,sp,48
    5020389a:	fca43c23          	sd	a0,-40(s0)
    5020389e:	fcb43823          	sd	a1,-48(s0)
    502038a2:	fd843783          	ld	a5,-40(s0)
    502038a6:	fef43423          	sd	a5,-24(s0)
    502038aa:	a00d                	j	502038cc <strcpy+0x38>
    502038ac:	fd043703          	ld	a4,-48(s0)
    502038b0:	00170793          	addi	a5,a4,1
    502038b4:	fcf43823          	sd	a5,-48(s0)
    502038b8:	fd843783          	ld	a5,-40(s0)
    502038bc:	00178693          	addi	a3,a5,1
    502038c0:	fcd43c23          	sd	a3,-40(s0)
    502038c4:	00074703          	lbu	a4,0(a4)
    502038c8:	00e78023          	sb	a4,0(a5)
    502038cc:	fd043783          	ld	a5,-48(s0)
    502038d0:	0007c783          	lbu	a5,0(a5)
    502038d4:	ffe1                	bnez	a5,502038ac <strcpy+0x18>
    502038d6:	fd843783          	ld	a5,-40(s0)
    502038da:	00078023          	sb	zero,0(a5)
    502038de:	fe843783          	ld	a5,-24(s0)
    502038e2:	853e                	mv	a0,a5
    502038e4:	7422                	ld	s0,40(sp)
    502038e6:	6145                	addi	sp,sp,48
    502038e8:	8082                	ret

00000000502038ea <strcat>:
    502038ea:	7179                	addi	sp,sp,-48
    502038ec:	f422                	sd	s0,40(sp)
    502038ee:	1800                	addi	s0,sp,48
    502038f0:	fca43c23          	sd	a0,-40(s0)
    502038f4:	fcb43823          	sd	a1,-48(s0)
    502038f8:	fd843783          	ld	a5,-40(s0)
    502038fc:	fef43423          	sd	a5,-24(s0)
    50203900:	a031                	j	5020390c <strcat+0x22>
    50203902:	fd843783          	ld	a5,-40(s0)
    50203906:	0785                	addi	a5,a5,1
    50203908:	fcf43c23          	sd	a5,-40(s0)
    5020390c:	fd843783          	ld	a5,-40(s0)
    50203910:	0007c783          	lbu	a5,0(a5)
    50203914:	f7fd                	bnez	a5,50203902 <strcat+0x18>
    50203916:	a00d                	j	50203938 <strcat+0x4e>
    50203918:	fd043703          	ld	a4,-48(s0)
    5020391c:	00170793          	addi	a5,a4,1
    50203920:	fcf43823          	sd	a5,-48(s0)
    50203924:	fd843783          	ld	a5,-40(s0)
    50203928:	00178693          	addi	a3,a5,1
    5020392c:	fcd43c23          	sd	a3,-40(s0)
    50203930:	00074703          	lbu	a4,0(a4)
    50203934:	00e78023          	sb	a4,0(a5)
    50203938:	fd043783          	ld	a5,-48(s0)
    5020393c:	0007c783          	lbu	a5,0(a5)
    50203940:	ffe1                	bnez	a5,50203918 <strcat+0x2e>
    50203942:	fd843783          	ld	a5,-40(s0)
    50203946:	00078023          	sb	zero,0(a5)
    5020394a:	fe843783          	ld	a5,-24(s0)
    5020394e:	853e                	mv	a0,a5
    50203950:	7422                	ld	s0,40(sp)
    50203952:	6145                	addi	sp,sp,48
    50203954:	8082                	ret

0000000050203956 <mthread_mutex_init>:
    50203956:	7179                	addi	sp,sp,-48
    50203958:	f406                	sd	ra,40(sp)
    5020395a:	f022                	sd	s0,32(sp)
    5020395c:	1800                	addi	s0,sp,48
    5020395e:	fca43c23          	sd	a0,-40(s0)
    50203962:	fd843783          	ld	a5,-40(s0)
    50203966:	fef43423          	sd	a5,-24(s0)
    5020396a:	fd843503          	ld	a0,-40(s0)
    5020396e:	1aa000ef          	jal	ra,50203b18 <sys_get_mutex>
    50203972:	87aa                	mv	a5,a0
    50203974:	873e                	mv	a4,a5
    50203976:	fe843783          	ld	a5,-24(s0)
    5020397a:	c398                	sw	a4,0(a5)
    5020397c:	4781                	li	a5,0
    5020397e:	853e                	mv	a0,a5
    50203980:	70a2                	ld	ra,40(sp)
    50203982:	7402                	ld	s0,32(sp)
    50203984:	6145                	addi	sp,sp,48
    50203986:	8082                	ret

0000000050203988 <mthread_mutex_lock>:
    50203988:	1101                	addi	sp,sp,-32
    5020398a:	ec06                	sd	ra,24(sp)
    5020398c:	e822                	sd	s0,16(sp)
    5020398e:	1000                	addi	s0,sp,32
    50203990:	fea43423          	sd	a0,-24(s0)
    50203994:	fe843783          	ld	a5,-24(s0)
    50203998:	439c                	lw	a5,0(a5)
    5020399a:	853e                	mv	a0,a5
    5020399c:	1a8000ef          	jal	ra,50203b44 <sys_lock_mutex>
    502039a0:	87aa                	mv	a5,a0
    502039a2:	853e                	mv	a0,a5
    502039a4:	60e2                	ld	ra,24(sp)
    502039a6:	6442                	ld	s0,16(sp)
    502039a8:	6105                	addi	sp,sp,32
    502039aa:	8082                	ret

00000000502039ac <mthread_mutex_unlock>:
    502039ac:	1101                	addi	sp,sp,-32
    502039ae:	ec06                	sd	ra,24(sp)
    502039b0:	e822                	sd	s0,16(sp)
    502039b2:	1000                	addi	s0,sp,32
    502039b4:	fea43423          	sd	a0,-24(s0)
    502039b8:	fe843783          	ld	a5,-24(s0)
    502039bc:	439c                	lw	a5,0(a5)
    502039be:	853e                	mv	a0,a5
    502039c0:	1b2000ef          	jal	ra,50203b72 <sys_unlock_mutex>
    502039c4:	87aa                	mv	a5,a0
    502039c6:	853e                	mv	a0,a5
    502039c8:	60e2                	ld	ra,24(sp)
    502039ca:	6442                	ld	s0,16(sp)
    502039cc:	6105                	addi	sp,sp,32
    502039ce:	8082                	ret

00000000502039d0 <sys_sleep>:
    502039d0:	1101                	addi	sp,sp,-32
    502039d2:	ec06                	sd	ra,24(sp)
    502039d4:	e822                	sd	s0,16(sp)
    502039d6:	1000                	addi	s0,sp,32
    502039d8:	87aa                	mv	a5,a0
    502039da:	fef42623          	sw	a5,-20(s0)
    502039de:	fec46783          	lwu	a5,-20(s0)
    502039e2:	4681                	li	a3,0
    502039e4:	4601                	li	a2,0
    502039e6:	85be                	mv	a1,a5
    502039e8:	4509                	li	a0,2
    502039ea:	1e2000ef          	jal	ra,50203bcc <invoke_syscall>
    502039ee:	0001                	nop
    502039f0:	60e2                	ld	ra,24(sp)
    502039f2:	6442                	ld	s0,16(sp)
    502039f4:	6105                	addi	sp,sp,32
    502039f6:	8082                	ret

00000000502039f8 <sys_prior>:
    502039f8:	1101                	addi	sp,sp,-32
    502039fa:	ec06                	sd	ra,24(sp)
    502039fc:	e822                	sd	s0,16(sp)
    502039fe:	1000                	addi	s0,sp,32
    50203a00:	87aa                	mv	a5,a0
    50203a02:	fef42623          	sw	a5,-20(s0)
    50203a06:	fec42783          	lw	a5,-20(s0)
    50203a0a:	4681                	li	a3,0
    50203a0c:	4601                	li	a2,0
    50203a0e:	85be                	mv	a1,a5
    50203a10:	4511                	li	a0,4
    50203a12:	1ba000ef          	jal	ra,50203bcc <invoke_syscall>
    50203a16:	0001                	nop
    50203a18:	60e2                	ld	ra,24(sp)
    50203a1a:	6442                	ld	s0,16(sp)
    50203a1c:	6105                	addi	sp,sp,32
    50203a1e:	8082                	ret

0000000050203a20 <sys_write>:
    50203a20:	1101                	addi	sp,sp,-32
    50203a22:	ec06                	sd	ra,24(sp)
    50203a24:	e822                	sd	s0,16(sp)
    50203a26:	1000                	addi	s0,sp,32
    50203a28:	fea43423          	sd	a0,-24(s0)
    50203a2c:	fe843783          	ld	a5,-24(s0)
    50203a30:	4681                	li	a3,0
    50203a32:	4601                	li	a2,0
    50203a34:	85be                	mv	a1,a5
    50203a36:	4551                	li	a0,20
    50203a38:	194000ef          	jal	ra,50203bcc <invoke_syscall>
    50203a3c:	0001                	nop
    50203a3e:	60e2                	ld	ra,24(sp)
    50203a40:	6442                	ld	s0,16(sp)
    50203a42:	6105                	addi	sp,sp,32
    50203a44:	8082                	ret

0000000050203a46 <sys_reflush>:
    50203a46:	1141                	addi	sp,sp,-16
    50203a48:	e406                	sd	ra,8(sp)
    50203a4a:	e022                	sd	s0,0(sp)
    50203a4c:	0800                	addi	s0,sp,16
    50203a4e:	4681                	li	a3,0
    50203a50:	4601                	li	a2,0
    50203a52:	4581                	li	a1,0
    50203a54:	455d                	li	a0,23
    50203a56:	176000ef          	jal	ra,50203bcc <invoke_syscall>
    50203a5a:	0001                	nop
    50203a5c:	60a2                	ld	ra,8(sp)
    50203a5e:	6402                	ld	s0,0(sp)
    50203a60:	0141                	addi	sp,sp,16
    50203a62:	8082                	ret

0000000050203a64 <sys_move_cursor>:
    50203a64:	1101                	addi	sp,sp,-32
    50203a66:	ec06                	sd	ra,24(sp)
    50203a68:	e822                	sd	s0,16(sp)
    50203a6a:	1000                	addi	s0,sp,32
    50203a6c:	87aa                	mv	a5,a0
    50203a6e:	872e                	mv	a4,a1
    50203a70:	fef42623          	sw	a5,-20(s0)
    50203a74:	87ba                	mv	a5,a4
    50203a76:	fef42423          	sw	a5,-24(s0)
    50203a7a:	fec42783          	lw	a5,-20(s0)
    50203a7e:	fe842703          	lw	a4,-24(s0)
    50203a82:	4681                	li	a3,0
    50203a84:	863a                	mv	a2,a4
    50203a86:	85be                	mv	a1,a5
    50203a88:	4559                	li	a0,22
    50203a8a:	142000ef          	jal	ra,50203bcc <invoke_syscall>
    50203a8e:	0001                	nop
    50203a90:	60e2                	ld	ra,24(sp)
    50203a92:	6442                	ld	s0,16(sp)
    50203a94:	6105                	addi	sp,sp,32
    50203a96:	8082                	ret

0000000050203a98 <sys_getchar>:
    50203a98:	1141                	addi	sp,sp,-16
    50203a9a:	e406                	sd	ra,8(sp)
    50203a9c:	e022                	sd	s0,0(sp)
    50203a9e:	0800                	addi	s0,sp,16
    50203aa0:	4681                	li	a3,0
    50203aa2:	4601                	li	a2,0
